Certificate:
    Data:
        Version: 3 (0x2)
        Serial Number: 1234567890 (0x499602d2)
        Signature Algorithm: sha256WithRSAEncryption
        Issuer: CN=ca.example.com
        Validity
            Not Before: Jun  5 02:15:00 2025 GMT
            Not After : Jun  5 02:15:00 2026 GMT
        Subject: CN=test.example.com
        Subject Public Key Info:
            Public Key Algorithm: rsaEncryption
                Public-Key: (2048 bit)
                Modulus:
                    00:d1:9e:a1:63:14:b2:e7:0e:7f:59:67:f3:4e:f0:
                    31:ab:6f:c8:5a:72:b2:9f:be:55:89:4f:46:0b:b9:
                    e4:4c:2c:5c:f2:a6:f0:f5:47:9a:c4:b6:4e:11:51:
                    68:8e:89:58:95:d8:5e:6d:c8:0e:b4:3f:2c:68:db:
                    dd:ce:dc:08:40:53:38:aa:98:80:46:df:ce:b4:48:
                    4a:aa:ef:1d:39:95:c6:87:07:6c:60:b3:17:ec:d2:
                    3b:0d:43:61:30:40:0c:11:5f:8b:b5:97:0c:c7:58:
                    09:d7:92:f6:ec:e3:b9:b0:d0:18:74:5a:d3:62:5a:
                    dc:6f:c3:4b:e1:d0:41:ab:45:64:27:44:0c:ee:a1:
                    9b:10:c9:71:44:23:6c:3b:47:dc:3b:cb:6c:5d:4c:
                    9e:9d:0b:9c:48:7f:42:95:5c:fb:04:fc:af:51:94:
                    bf:62:13:cc:4f:3f:e1:69:dc:de:56:62:5f:f7:1c:
                    e9:16:be:a6:76:f8:f9:cc:31:b8:58:cf:98:9c:fc:
                    7c:6c:9a:64:6d:04:4c:0f:0d:9a:d0:d1:1c:5b:84:
                    79:f9:c8:11:f6:a6:94:7b:ac:a1:c7:4c:7c:c4:e2:
                    a4:ba:96:07:0d:9d:e0:83:20:ee:8f:c5:c3:8a:e4:
                    26:b9:0d:a0:c2:bd:f4:42:30:f4:a2:8d:26:e2:f1:
                    80:35
                Exponent: 65537 (0x10001)
        X509v3 extensions:
            X509v3 Subject Key Identifier: 
                5C:F5:1F:D3:17:FD:A5:94:C0:FE:21:71:1D:26:E4:5D:85:87:0C:46
            X509v3 Authority Key Identifier: 
                5C:F5:1F:D3:17:FD:A5:94:C0:FE:21:71:1D:26:E4:5D:85:87:0C:46
            X509v3 Basic Constraints: critical
                CA:TRUE
    Signature Algorithm: sha256WithRSAEncryption
    Signature Value:
        9b:53:85:f4:08:cc:93:86:c8:46:c5:53:c2:32:81:cf:27:4d:
        2c:c1:30:c4:d0:ed:01:d0:6b:f9:5c:b8:97:51:54:c9:02:64:
        65:a0:11:2c:10:4b:bb:2d:2b:2f:55:14:56:28:69:5c:19:dc:
        a6:b4:57:90:3b:9c:f7:a8:91:2a:82:f0:8b:92:8b:7f:ef:f8:
        14:36:94:a3:82:7a:30:66:cd:ee:f5:8c:1c:10:1a:c6:43:48:
        a8:10:82:ee:67:e0:a3:65:92:2e:93:98:55:ad:bc:3a:c9:75:
        80:b9:76:97:9f:eb:84:1b:15:a0:85:43:c3:37:b2:7f:f3:da:
        97:f4:31:d8:75:27:2d:30:b5:69:5c:32:c6:f6:d4:77:b2:cd:
        96:e9:7d:fc:21:36:24:50:71:99:eb:6e:05:b7:a5:a2:7e:33:
        ce:45:44:b2:54:c1:cb:52:be:e2:42:f8:23:ed:80:da:ac:34:
        92:41:b8:6c:06:b4:15:e3:39:11:c0:53:bc:f6:e6:60:9d:be:
        31:89:0a:3d:83:fd:4b:54:e9:49:85:7c:9e:66:e0:3d:fc:f0:
        2d:d4:78:2a:a7:c6:87:41:9c:95:e5:f3:f3:6c:3f:9b:d8:e7:
        03:86:d8:ab:8a:1f:95:01:7f:f4:fe:a2:a8:82:6a:4d:80:00:
        8b:67:fa:cd:67:61:65:09:96:55:08:eb:a8:ba:be:88:72:11:
        4b:82:1a:1b:de:fb:30:d8:10:e8:34:ec:14:cc:f8:cd:e2:75:
        49:06:11:3b:da:43:18:31:cc:40:ad:0b:ae:fb:94:a1:04:b6:
        2d:e6:e2:de:4f:07:8f:a6:db:71:43:63:a6:6a:c1:da:9d:85:
        1b:87:34:13:0c:89:fa:44:62:d5:73:8d:bf:f0:06:fb:d5:f8:
        b1:0c:ac:22:09:af:ed:83:78:8c:04:5a:ce:a0:24:3b:e3:66:
        25:58:8c:b4:e9:84:cf:1c:6c:19:e8:e3:8d:dd:56:16:f7:30:
        f8:4c:1b:2b:e0:49:c6:71:57:d3:d1:df:18:45:71:60:db:94:
        a2:26:85:bb:0f:26:28:14:a8:36:33:ce:6c:04:2b:86:7e:01:
        4e:13:c1:8a:de:14:f2:cb:f7:c1:47:4d:d0:6b:4b:a5:f1:2b:
        f6:0c:52:17:c8:3f:37:14:cc:ab:bd:8f:15:68:a8:fe:96:80:
        d8:01:64:a5:fe:1e:d2:4e:e3:9e:a1:c1:70:64:a3:e2:84:24:
        11:09:42:a6:3a:2f:f8:f3:c9:0e:47:ca:7f:89:00:dc:1b:aa:
        59:69:ff:2a:82:f3:57:5e:5b:fa:b0:e8:a1:bc:39:57:a9:3a:
        1c:31:7b:01:12:c1:ac:6a
-----BEGIN CERTIFICATE-----
MIIEBTCCAe2gAwIBAgIESZYC0jANBgkqhkiG9w0BAQsFADAZMRcwFQYDVQQDDA5j
YS5leGFtcGxlLmNvbTAeFw0yNTA2MDUwMjE1MDBaFw0yNjA2MDUwMjE1MDBaMBsx
GTAXBgNVBAMMEHRlc3QuZXhhbXBsZS5jb20wggEiMA0GCSqGSIb3DQEBAQUAA4IB
DwAwggEKAoIBAQDRnqFjFLLnDn9ZZ/NO8DGrb8hacrKfvlWJT0YLueRMLFzypvD1
R5rEtk4RUWiOiViV2F5tyA60Pyxo293O3AhAUziqmIBG3860SEqq7x05lcaHB2xg
sxfs0jsNQ2EwQAwRX4u1lwzHWAnXkvbs47mw0Bh0WtNiWtxvw0vh0EGrRWQnRAzu
oZsQyXFEI2w7R9w7y2xdTJ6dC5xIf0KVXPsE/K9RlL9iE8xPP+Fp3N5WYl/3HOkW
vqZ2+PnMMbhYz5ic/HxsmmRtBEwPDZrQ0RxbhHn5yBH2ppR7rKHHTHzE4qS6lgcN
neCDIO6PxcOK5Ca5DaDCvfRCMPSijSbi8YA1AgMBAAGjUzBRMB0GA1UdDgQWBBRc
9R/TF/2llMD+IXEdJuRdhYcMRjAfBgNVHSMEGDAWgBRc9R/TF/2llMD+IXEdJuRd
hYcMRjAPBgNVHRMBAf8EBTADAQH/MA0GCSqGSIb3DQEBCwUAA4ICAQCbU4X0CMyT
hshGxVPCMoHPJ00swTDE0O0B0Gv5XLiXUVTJAmRloBEsEEu7LSsvVRRWKGlcGdym
tFeQO5z3qJEqgvCLkot/7/gUNpSjgnowZs3u9YwcEBrGQ0ioEILuZ+CjZZIuk5hV
rbw6yXWAuXaXn+uEGxWghUPDN7J/89qX9DHYdSctMLVpXDLG9tR3ss2W6X38ITYk
UHGZ624Ft6WifjPORUSyVMHLUr7iQvgj7YDarDSSQbhsBrQV4zkRwFO89uZgnb4x
iQo9g/1LVOlJhXyeZuA9/PAt1Hgqp8aHQZyV5fPzbD+b2OcDhtirih+VAX/0/qKo
gmpNgACLZ/rNZ2FlCZZVCOuour6IchFLghob3vsw2BDoNOwUzPjN4nVJBhE72kMY
McxArQuu+5ShBLYt5uLeTwePpttxQ2OmasHanYUbhzQTDIn6RGLVc42/8Ab71fix
DKwiCa/tg3iMBFrOoCQ742YlWIy06YTPHGwZ6OON3VYW9zD4TBsr4EnGcVfT0d8Y
RXFg25SiJoW7DyYoFKg2M85sBCuGfgFOE8GK3hTyy/fBR03Qa0ul8Sv2DFIXyD83
FMyrvY8VaKj+loDYAWSl/h7STuOeocFwZKPihCQRCUKmOi/488kOR8p/iQDcG6pZ
af8qgvNXXlv6sOihvDlXqTocMXsBEsGsag==
-----END CERTIFICATE-----
