Certificate:
    Data:
        Version: 3 (0x2)
        Serial Number:
            70:13:06:dc:f1:04:3e:4c:ce:e8:ef:d3:4a:ea:b2:b7:70:17:31:1e
        Signature Algorithm: sha256WithRSAEncryption
        Issuer: CN=b.example.com
        Validity
            Not Before: Jun  5 02:15:10 2025 GMT
            Not After : Jul  5 02:15:10 2025 GMT
        Subject: CN=b.example.com
        Subject Public Key Info:
            Public Key Algorithm: rsaEncryption
                Public-Key: (4096 bit)
                Modulus:
                    00:cd:f4:03:2f:b0:2d:dd:c8:83:d3:3e:f4:5c:ef:
                    6f:03:d2:ef:44:90:01:22:92:80:bb:12:33:fd:70:
                    ac:97:d9:a1:fd:10:95:e8:67:49:b9:57:15:28:b3:
                    f8:ab:07:31:6a:18:29:08:40:cf:c8:96:50:09:0d:
                    f5:db:50:7d:aa:b5:4e:8d:de:6f:25:d4:3c:f8:9b:
                    2a:dc:27:d7:11:03:b6:c9:6e:b3:c9:1e:f8:c6:aa:
                    79:2e:19:64:cb:77:d2:34:04:33:64:09:85:7f:85:
                    49:f4:64:2b:f2:24:bb:73:76:da:9a:82:d2:58:da:
                    0b:57:70:5d:b2:41:df:a9:a7:b8:b6:33:a4:dc:cd:
                    5a:63:bf:76:c9:29:b3:16:4a:13:4f:dc:e2:d8:ce:
                    6e:42:ed:db:c2:29:e8:b1:1c:dd:4c:f0:d1:a7:1f:
                    94:e8:02:55:c6:17:1b:04:be:63:d0:6f:f0:59:46:
                    63:98:aa:c3:b8:c0:8a:0b:b6:1c:17:de:d3:55:ae:
                    4a:10:03:a8:15:7e:e5:a1:ef:f2:c4:59:ea:f7:69:
                    8d:c0:3d:83:aa:e3:6f:bb:26:0c:3a:32:d8:81:a1:
                    45:cb:6d:bd:58:86:e1:a9:a1:0b:10:a3:48:67:c7:
                    a9:6f:72:85:41:a9:30:d6:6f:cd:aa:6b:20:a4:da:
                    78:ab:d7:cf:fe:b7:29:78:a6:ce:c0:e6:55:b8:3a:
                    d9:13:8e:13:c7:23:36:53:ca:60:56:82:1c:98:8f:
                    9d:de:32:b9:8a:ce:9a:ed:54:bd:c7:af:8e:46:eb:
                    94:16:1b:3e:1d:85:3f:e8:b3:36:5a:7d:13:be:4b:
                    7e:2b:f9:f7:ab:8a:a1:e1:64:83:00:94:38:90:f0:
                    ac:19:d5:62:60:6d:9e:7a:5e:fe:8e:c4:21:39:d6:
                    3d:b9:29:8c:6a:b9:36:00:74:18:75:a1:f1:60:c5:
                    c7:47:08:c0:45:0b:91:1a:fb:f2:f1:37:df:88:7a:
                    21:91:db:10:7a:d7:5f:95:28:e1:53:1f:23:72:e9:
                    51:91:81:d3:33:38:dd:8c:7e:ed:3e:88:e1:30:26:
                    3c:0d:c6:de:f6:bd:29:97:1c:31:a5:e2:7b:02:8d:
                    de:f3:1a:bd:be:34:50:70:4a:a9:92:cd:cb:40:05:
                    1b:97:41:75:e6:77:12:20:70:85:f2:f1:45:36:46:
                    2a:53:be:67:32:48:66:a2:16:54:88:93:08:fe:7c:
                    82:e2:90:2f:38:e0:92:61:e0:c1:46:1a:25:34:a2:
                    3e:c7:8f:66:aa:50:0a:83:4c:1b:22:b2:c2:aa:2c:
                    60:ad:3f:03:21:3d:4c:94:18:5c:97:e8:ea:3d:70:
                    24:f8:39
                Exponent: 65537 (0x10001)
        X509v3 extensions:
            X509v3 Subject Key Identifier: 
                70:97:27:A8:93:E0:19:ED:F8:42:FC:FF:B8:58:01:CD:EA:FF:9D:9E
    Signature Algorithm: sha256WithRSAEncryption
    Signature Value:
        86:bc:60:c2:b6:20:83:9a:c0:02:b3:fe:c0:76:3b:23:69:11:
        f2:ff:fe:15:d5:a8:1e:d3:a1:28:9f:a0:87:16:22:15:2a:ed:
        cd:89:f0:ee:c0:5d:7e:69:fe:3e:6e:cd:94:39:54:6f:37:1b:
        a2:3f:2a:7a:72:07:eb:03:05:e6:20:71:04:c0:5f:86:fb:d7:
        22:c8:21:e0:20:a0:d4:e6:50:f5:d6:b8:cd:0b:3e:17:7c:5e:
        f4:13:53:32:8a:11:21:d3:59:30:67:01:0e:98:61:52:05:4f:
        76:48:ef:33:8a:a0:e2:a0:81:b5:00:6d:2b:27:27:a3:e5:a8:
        b8:b1:a4:18:8b:d7:71:6c:dc:a6:d6:53:af:ab:ab:46:ac:05:
        22:09:19:c7:a6:90:9b:fc:ae:15:95:02:e6:df:66:16:3d:86:
        be:a1:87:49:c3:0c:a5:6d:a4:ec:65:90:95:0a:c6:8f:d3:de:
        1e:e7:56:21:cd:da:0b:3c:93:07:46:88:93:98:3e:dc:ad:b8:
        3c:0c:78:1d:b8:07:b1:64:aa:44:70:8e:5b:44:1c:e5:85:ed:
        7e:68:4b:b1:94:de:12:10:c4:38:36:52:ab:5d:70:b5:23:42:
        de:a2:9e:02:5e:91:ff:96:cb:78:58:e1:7c:ba:b0:70:b5:92:
        cf:95:8b:b0:9a:fb:39:96:a0:59:c7:42:22:bb:72:1f:b9:bf:
        94:e3:9d:b8:11:5e:ac:c5:b6:5d:6c:09:81:0e:59:61:8f:fb:
        7d:93:92:7e:64:fe:c6:99:46:b5:68:0f:63:84:ee:a2:d7:77:
        bd:04:ba:57:86:a7:7c:cb:99:09:3e:9b:33:fe:82:87:f5:80:
        3b:0b:8e:e1:9f:16:49:31:aa:e1:b7:65:85:78:19:cb:52:8d:
        36:5d:c8:fc:c3:2b:f8:c1:03:f0:bd:7c:32:7c:44:4f:d6:22:
        24:df:8c:bf:12:8a:02:67:75:a0:87:61:35:c6:07:2e:b2:c9:
        77:1a:a0:c6:d3:81:6d:d1:6d:69:57:ee:fe:0b:c1:46:09:4c:
        74:d7:9b:a3:95:c9:f6:4e:19:a5:34:0c:50:f2:48:02:4f:e9:
        14:9e:67:4b:06:9d:79:23:e0:7c:85:75:f0:d6:83:d2:4b:af:
        ee:82:13:6d:3e:b9:d8:5b:b0:4e:ee:0f:4b:2d:a6:b4:f0:17:
        ba:2d:90:aa:b1:58:bd:24:22:cd:22:f4:a0:6f:2f:c0:6e:f7:
        93:5a:15:d2:e5:ab:9a:a0:72:29:75:1f:54:a6:2c:82:4c:12:
        9e:b5:2b:5e:ab:39:21:15:20:e3:42:09:7d:87:d8:e4:b5:25:
        84:76:de:dd:e6:13:f1:16
-----BEGIN CERTIFICATE-----
MIIE3zCCAsegAwIBAgIUcBMG3PEEPkzO6O/TSuqyt3AXMR4wDQYJKoZIhvcNAQEL
BQAwGDEWMBQGA1UEAwwNYi5leGFtcGxlLmNvbTAeFw0yNTA2MDUwMjE1MTBaFw0y
NTA3MDUwMjE1MTBaMBgxFjAUBgNVBAMMDWIuZXhhbXBsZS5jb20wggIiMA0GCSqG
SIb3DQEBAQUAA4ICDwAwggIKAoICAQDN9AMvsC3dyIPTPvRc728D0u9EkAEikoC7
EjP9cKyX2aH9EJXoZ0m5VxUos/irBzFqGCkIQM/IllAJDfXbUH2qtU6N3m8l1Dz4
myrcJ9cRA7bJbrPJHvjGqnkuGWTLd9I0BDNkCYV/hUn0ZCvyJLtzdtqagtJY2gtX
cF2yQd+pp7i2M6TczVpjv3bJKbMWShNP3OLYzm5C7dvCKeixHN1M8NGnH5ToAlXG
FxsEvmPQb/BZRmOYqsO4wIoLthwX3tNVrkoQA6gVfuWh7/LEWer3aY3APYOq42+7
Jgw6MtiBoUXLbb1YhuGpoQsQo0hnx6lvcoVBqTDWb82qayCk2nir18/+tyl4ps7A
5lW4OtkTjhPHIzZTymBWghyYj53eMrmKzprtVL3Hr45G65QWGz4dhT/oszZafRO+
S34r+feriqHhZIMAlDiQ8KwZ1WJgbZ56Xv6OxCE51j25KYxquTYAdBh1ofFgxcdH
CMBFC5Ea+/LxN9+IeiGR2xB611+VKOFTHyNy6VGRgdMzON2Mfu0+iOEwJjwNxt72
vSmXHDGl4nsCjd7zGr2+NFBwSqmSzctABRuXQXXmdxIgcIXy8UU2RipTvmcySGai
FlSIkwj+fILikC844JJh4MFGGiU0oj7Hj2aqUAqDTBsissKqLGCtPwMhPUyUGFyX
6Oo9cCT4OQIDAQABoyEwHzAdBgNVHQ4EFgQUcJcnqJPgGe34Qvz/uFgBzer/nZ4w
DQYJKoZIhvcNAQELBQADggIBAIa8YMK2IIOawAKz/sB2OyNpEfL//hXVqB7ToSif
oIcWIhUq7c2J8O7AXX5p/j5uzZQ5VG83G6I/KnpyB+sDBeYgcQTAX4b71yLIIeAg
oNTmUPXWuM0LPhd8XvQTUzKKESHTWTBnAQ6YYVIFT3ZI7zOKoOKggbUAbSsnJ6Pl
qLixpBiL13Fs3KbWU6+rq0asBSIJGcemkJv8rhWVAubfZhY9hr6hh0nDDKVtpOxl
kJUKxo/T3h7nViHN2gs8kwdGiJOYPtytuDwMeB24B7FkqkRwjltEHOWF7X5oS7GU
3hIQxDg2UqtdcLUjQt6ingJekf+Wy3hY4Xy6sHC1ks+Vi7Ca+zmWoFnHQiK7ch+5
v5TjnbgRXqzFtl1sCYEOWWGP+32Tkn5k/saZRrVoD2OE7qLXd70EuleGp3zLmQk+
mzP+gof1gDsLjuGfFkkxquG3ZYV4GctSjTZdyPzDK/jBA/C9fDJ8RE/WIiTfjL8S
igJndaCHYTXGBy6yyXcaoMbTgW3RbWlX7v4LwUYJTHTXm6OVyfZOGaU0DFDySAJP
6RSeZ0sGnXkj4HyFdfDWg9JLr+6CE20+udhbsE7uD0stprTwF7otkKqxWL0kIs0i
9KBvL8Bu95NaFdLlq5qgcil1H1SmLIJMEp61K16rOSEVIONCCX2H2OS1JYR23t3m
E/EW
-----END CERTIFICATE-----
