Certificate:
    Data:
        Version: 3 (0x2)
        Serial Number:
            45:a3:ec:d9:32:60:15:86:79:0f:42:0d:35:f9:47:8c:72:84:86:f9
        Signature Algorithm: sha1WithRSAEncryption
        Issuer: C=AU, O=Dodgy Brothers, CN=Dodgy CA
        Validity
            Not Before: Jun  5 02:28:40 2025 GMT
            Not After : Jun  4 02:28:40 2028 GMT
        Subject: C=AU, O=Dodgy Brothers, CN=Dodgy CA
        Subject Public Key Info:
            Public Key Algorithm: rsaEncryption
                Public-Key: (2048 bit)
                Modulus:
                    00:96:9d:a4:3d:00:4b:1c:5f:c6:cb:dd:8f:d2:31:
                    b2:88:15:cc:c4:86:2c:5c:e2:69:8b:84:f4:a7:a3:
                    53:df:91:e3:bf:51:89:fb:f0:7c:10:0d:3b:ad:ac:
                    35:62:75:f5:7f:ff:f4:6e:54:8f:05:a6:92:23:b3:
                    9f:59:39:d0:39:18:b0:10:40:de:62:73:8a:4e:b0:
                    8e:df:dc:e7:c9:41:22:54:84:80:08:29:bc:35:3c:
                    86:df:30:de:dd:b4:24:ff:7e:62:a5:c0:7a:e8:2a:
                    16:3f:d6:97:da:c5:42:db:2f:69:64:91:cb:08:d7:
                    56:5a:79:7f:1b:84:41:e9:4d:9d:77:09:10:a8:6c:
                    29:33:44:c6:c0:54:65:e6:e8:e3:f2:75:05:6a:64:
                    95:6c:c0:f4:fd:25:61:6e:48:36:f0:c0:03:07:05:
                    d6:7c:e5:11:fd:18:e8:4a:2d:d3:72:0c:37:28:36:
                    31:31:38:85:e8:71:8d:d8:02:49:c8:bc:19:89:c5:
                    8a:b1:3f:a2:35:ea:aa:90:1c:64:68:7b:af:67:6a:
                    5a:06:54:0f:50:e1:f9:b4:f6:be:3a:d4:ce:3f:1e:
                    4c:7d:c6:77:32:3e:a2:58:ed:db:dd:74:d8:92:14:
                    6a:a8:f7:cb:34:58:91:a8:7c:14:b1:7d:08:b3:4d:
                    b1:47
                Exponent: 65537 (0x10001)
        X509v3 extensions:
            X509v3 Subject Key Identifier: 
                B4:11:33:F1:D7:E2:5E:F7:53:9E:20:22:10:4F:86:06:BF:1F:C9:5E
            X509v3 Authority Key Identifier: 
                keyid:B4:11:33:F1:D7:E2:5E:F7:53:9E:20:22:10:4F:86:06:BF:1F:C9:5E
                DirName:/C=AU/O=Dodgy Brothers/CN=Dodgy CA
                serial:45:A3:EC:D9:32:60:15:86:79:0F:42:0D:35:F9:47:8C:72:84:86:F9
            X509v3 Basic Constraints: critical
                CA:TRUE, pathlen:1
            X509v3 Key Usage: 
                Certificate Sign, CRL Sign
            X509v3 Issuer Alternative Name: 
                <EMPTY>

    Signature Algorithm: sha1WithRSAEncryption
    Signature Value:
        8e:3d:27:b3:27:f8:5a:8e:c3:69:a1:a8:8e:06:21:55:06:fb:
        1a:77:e3:45:03:a5:a0:2b:aa:6d:45:b4:12:4b:fa:00:dc:80:
        3f:df:a4:bb:60:bc:9a:b3:47:cf:1f:54:1d:9b:05:7d:20:74:
        e1:45:e1:8f:2c:7d:9a:1c:2f:18:97:ff:9e:d2:04:5b:68:85:
        f5:14:7c:74:64:39:a7:c2:90:d5:28:24:d4:e9:91:5c:68:52:
        d8:67:85:a1:d7:dd:e9:d3:78:18:8b:15:f7:16:5a:d2:d2:fa:
        4c:e3:70:06:f7:aa:6c:06:4f:81:cc:99:08:12:6c:30:5c:68:
        cc:fc:f5:a6:39:52:50:d1:0d:92:8f:5d:64:cf:0a:64:f7:3f:
        ff:56:8c:32:0d:89:58:1a:30:3b:4b:53:dc:a0:57:fa:a2:ae:
        c8:93:e3:b9:e5:fe:f6:42:96:63:40:d8:38:71:0b:3e:f8:6c:
        50:92:b2:78:be:7e:a8:fb:31:c1:5a:f5:0b:1b:33:93:6b:11:
        8e:35:e1:2f:ed:d0:40:d6:63:5e:cf:c6:ab:41:72:c7:e4:1d:
        fb:63:f3:08:9a:91:46:d8:f1:da:c5:a6:40:e7:fc:27:67:90:
        e8:62:d1:7d:38:2e:4c:1d:40:9f:58:b7:5a:d9:a9:ed:43:dc:
        41:b7:3c:36
-----BEGIN CERTIFICATE-----
MIIDxTCCAq2gAwIBAgIURaPs2TJgFYZ5D0INNflHjHKEhvkwDQYJKoZIhvcNAQEF
BQAwOTELMAkGA1UEBhMCQVUxFzAVBgNVBAoMDkRvZGd5IEJyb3RoZXJzMREwDwYD
VQQDDAhEb2RneSBDQTAeFw0yNTA2MDUwMjI4NDBaFw0yODA2MDQwMjI4NDBaMDkx
CzAJBgNVBAYTAkFVMRcwFQYDVQQKDA5Eb2RneSBCcm90aGVyczERMA8GA1UEAwwI
RG9kZ3kgQ0EwggEiMA0GCSqGSIb3DQEBAQUAA4IBDwAwggEKAoIBAQCWnaQ9AEsc
X8bL3Y/SMbKIFczEhixc4mmLhPSno1PfkeO/UYn78HwQDTutrDVidfV///RuVI8F
ppIjs59ZOdA5GLAQQN5ic4pOsI7f3OfJQSJUhIAIKbw1PIbfMN7dtCT/fmKlwHro
KhY/1pfaxULbL2lkkcsI11ZaeX8bhEHpTZ13CRCobCkzRMbAVGXm6OPydQVqZJVs
wPT9JWFuSDbwwAMHBdZ85RH9GOhKLdNyDDcoNjExOIXocY3YAknIvBmJxYqxP6I1
6qqQHGRoe69naloGVA9Q4fm09r461M4/Hkx9xncyPqJY7dvddNiSFGqo98s0WJGo
fBSxfQizTbFHAgMBAAGjgcQwgcEwHQYDVR0OBBYEFLQRM/HX4l73U54gIhBPhga/
H8leMHQGA1UdIwRtMGuAFLQRM/HX4l73U54gIhBPhga/H8leoT2kOzA5MQswCQYD
VQQGEwJBVTEXMBUGA1UECgwORG9kZ3kgQnJvdGhlcnMxETAPBgNVBAMMCERvZGd5
IENBghRFo+zZMmAVhnkPQg01+UeMcoSG+TASBgNVHRMBAf8ECDAGAQH/AgEBMAsG
A1UdDwQEAwIBBjAJBgNVHRIEAjAAMA0GCSqGSIb3DQEBBQUAA4IBAQCOPSezJ/ha
jsNpoaiOBiFVBvsad+NFA6WgK6ptRbQSS/oA3IA/36S7YLyas0fPH1QdmwV9IHTh
ReGPLH2aHC8Yl/+e0gRbaIX1FHx0ZDmnwpDVKCTU6ZFcaFLYZ4Wh193p03gYixX3
FlrS0vpM43AG96psBk+BzJkIEmwwXGjM/PWmOVJQ0Q2Sj11kzwpk9z//VowyDYlY
GjA7S1PcoFf6oq7Ik+O55f72QpZjQNg4cQs++GxQkrJ4vn6o+zHBWvULGzOTaxGO
NeEv7dBA1mNez8arQXLH5B37Y/MImpFG2PHaxaZA5/wnZ5DoYtF9OC5MHUCfWLda
2antQ9xBtzw2
-----END CERTIFICATE-----
