Certificate:
    Data:
        Version: 3 (0x2)
        Serial Number:
            30:c3:63:f1:e3:71:b5:d6:4f:96:77:16:08:e4:94:30:1e:26:d1:bb
        Signature Algorithm: sha1WithRSAEncryption
        Issuer: C=AU, O=Dodgy Brothers, CN=Dodgy CA
        Validity
            Not Before: Jun  5 02:28:51 2025 GMT
            Not After : Jun  5 02:28:51 2026 GMT
        Subject: C=AU, O=Dodgy Brothers, CN=Brother 1, CN=lastupdate_invalid
        Subject Public Key Info:
            Public Key Algorithm: rsaEncryption
                Public-Key: (2048 bit)
                Modulus:
                    00:be:95:86:fa:71:4c:6a:ea:51:98:50:4b:99:a1:
                    2c:66:15:f3:60:f3:e1:ff:69:fb:ce:48:01:1d:fe:
                    e1:2c:38:b0:e3:bd:8f:4b:48:a7:7e:3a:c6:73:e3:
                    ab:bf:e1:da:6e:96:f5:fe:c3:e4:b4:a8:ad:bc:56:
                    34:d4:96:25:74:27:c3:10:db:35:10:25:1c:8e:4b:
                    81:9b:fb:42:04:7c:6f:3d:e2:38:6c:0e:e4:2e:8e:
                    2a:18:6d:30:cd:67:2a:23:6b:37:cf:05:9f:cc:b7:
                    59:58:7f:ba:c4:0a:3f:8c:a4:ad:cb:98:9c:c0:f2:
                    8f:69:67:0f:c1:4e:33:cf:fc:85:5e:bb:5e:cf:93:
                    b0:cf:d9:f4:52:79:87:b1:f8:4d:15:68:65:d5:b7:
                    19:08:63:7f:5e:b1:34:ad:05:8f:5a:f0:e4:e1:8f:
                    25:f2:5c:5c:61:95:b0:56:2d:31:2b:08:65:79:e5:
                    b1:3b:9d:3e:b9:52:4b:ac:5d:c4:58:66:85:8d:81:
                    b3:04:28:f4:3f:2f:ac:92:01:62:d5:fd:8e:0b:da:
                    02:0c:7a:c7:6e:09:1c:ac:1c:b2:4c:d7:54:b8:26:
                    33:b2:5f:14:f3:b1:f9:3d:62:4d:40:99:6b:b6:e7:
                    89:58:97:d6:d4:4d:ea:4b:68:52:f3:3c:a8:b1:35:
                    88:db
                Exponent: 65537 (0x10001)
        X509v3 extensions:
            X509v3 Subject Key Identifier: 
                A1:DF:33:C3:CF:3E:53:41:A7:68:44:CC:AA:19:E1:84:C9:0D:BC:C6
            X509v3 Authority Key Identifier: 
                keyid:B4:11:33:F1:D7:E2:5E:F7:53:9E:20:22:10:4F:86:06:BF:1F:C9:5E
                DirName:/C=AU/O=Dodgy Brothers/CN=Dodgy CA
                serial:45:A3:EC:D9:32:60:15:86:79:0F:42:0D:35:F9:47:8C:72:84:86:F9
            X509v3 Basic Constraints: critical
                CA:TRUE, pathlen:1
            X509v3 Key Usage: 
                Certificate Sign, CRL Sign
            X509v3 Issuer Alternative Name: 
                <EMPTY>

    Signature Algorithm: sha1WithRSAEncryption
    Signature Value:
        58:93:fc:20:d7:a8:5a:76:66:77:72:53:f1:d1:de:f4:23:9e:
        71:6d:dd:a7:d4:3f:ac:c0:95:80:49:19:a4:65:49:e0:6b:1e:
        5a:1a:72:53:2a:c2:6e:fa:8a:af:2a:e8:6d:29:62:31:8a:8a:
        c1:bb:d8:f7:71:27:7d:0c:1d:ca:98:47:e7:f0:5b:5b:c9:8a:
        b4:38:1b:be:95:97:14:2f:74:71:1a:56:cc:45:a7:6f:82:21:
        60:17:30:6b:cf:64:7c:0e:71:c2:22:96:d7:75:34:1a:82:38:
        b6:03:87:7f:aa:be:68:8d:cb:64:25:a6:98:1b:51:7d:47:57:
        7d:6a:f6:69:38:0b:37:31:10:c6:24:31:17:91:47:90:54:6b:
        ce:16:63:d5:2d:57:e2:c0:e2:5f:18:9a:ff:d8:24:40:26:83:
        df:df:5c:b0:c9:83:fc:b9:91:96:b5:a1:e8:03:5d:a3:e1:51:
        40:02:bc:84:af:17:50:bd:b2:5d:e7:25:54:a6:e3:a8:d2:58:
        fb:04:d3:d7:49:93:05:83:0b:42:53:d2:ff:fe:66:fe:3a:58:
        a2:e6:2c:a8:14:cb:25:94:ea:74:83:2f:dd:84:f3:1c:0b:44:
        e9:97:7a:fb:72:71:2f:7a:ac:ae:e0:78:06:79:79:0b:1e:8c:
        11:02:cb:e7
-----BEGIN CERTIFICATE-----
MIID4zCCAsugAwIBAgIUMMNj8eNxtdZPlncWCOSUMB4m0bswDQYJKoZIhvcNAQEF
BQAwOTELMAkGA1UEBhMCQVUxFzAVBgNVBAoMDkRvZGd5IEJyb3RoZXJzMREwDwYD
VQQDDAhEb2RneSBDQTAeFw0yNTA2MDUwMjI4NTFaFw0yNjA2MDUwMjI4NTFaMFcx
CzAJBgNVBAYTAkFVMRcwFQYDVQQKDA5Eb2RneSBCcm90aGVyczESMBAGA1UEAwwJ
QnJvdGhlciAxMRswGQYDVQQDDBJsYXN0dXBkYXRlX2ludmFsaWQwggEiMA0GCSqG
SIb3DQEBAQUAA4IBDwAwggEKAoIBAQC+lYb6cUxq6lGYUEuZoSxmFfNg8+H/afvO
SAEd/uEsOLDjvY9LSKd+OsZz46u/4dpulvX+w+S0qK28VjTUliV0J8MQ2zUQJRyO
S4Gb+0IEfG894jhsDuQujioYbTDNZyojazfPBZ/Mt1lYf7rECj+MpK3LmJzA8o9p
Zw/BTjPP/IVeu17Pk7DP2fRSeYex+E0VaGXVtxkIY39esTStBY9a8OThjyXyXFxh
lbBWLTErCGV55bE7nT65UkusXcRYZoWNgbMEKPQ/L6ySAWLV/Y4L2gIMesduCRys
HLJM11S4JjOyXxTzsfk9Yk1AmWu254lYl9bUTepLaFLzPKixNYjbAgMBAAGjgcQw
gcEwHQYDVR0OBBYEFKHfM8PPPlNBp2hEzKoZ4YTJDbzGMHQGA1UdIwRtMGuAFLQR
M/HX4l73U54gIhBPhga/H8leoT2kOzA5MQswCQYDVQQGEwJBVTEXMBUGA1UECgwO
RG9kZ3kgQnJvdGhlcnMxETAPBgNVBAMMCERvZGd5IENBghRFo+zZMmAVhnkPQg01
+UeMcoSG+TASBgNVHRMBAf8ECDAGAQH/AgEBMAsGA1UdDwQEAwIBBjAJBgNVHRIE
AjAAMA0GCSqGSIb3DQEBBQUAA4IBAQBYk/wg16hadmZ3clPx0d70I55xbd2n1D+s
wJWASRmkZUngax5aGnJTKsJu+oqvKuhtKWIxiorBu9j3cSd9DB3KmEfn8FtbyYq0
OBu+lZcUL3RxGlbMRadvgiFgFzBrz2R8DnHCIpbXdTQagji2A4d/qr5ojctkJaaY
G1F9R1d9avZpOAs3MRDGJDEXkUeQVGvOFmPVLVfiwOJfGJr/2CRAJoPf31ywyYP8
uZGWtaHoA12j4VFAAryErxdQvbJd5yVUpuOo0lj7BNPXSZMFgwtCU9L//mb+Olii
5iyoFMsllOp0gy/dhPMcC0Tpl3r7cnEveqyu4HgGeXkLHowRAsvn
-----END CERTIFICATE-----
