Certificate:
    Data:
        Version: 3 (0x2)
        Serial Number:
            30:c3:63:f1:e3:71:b5:d6:4f:96:77:16:08:e4:94:30:1e:26:d1:c2
        Signature Algorithm: sha1WithRSAEncryption
        Issuer: C=AU, O=Dodgy Brothers, CN=Dodgy CA
        Validity
            Not Before: Jun  5 02:29:14 2025 GMT
            Not After : Jun  5 02:29:14 2026 GMT
        Subject: C=AU, O=Dodgy Brothers, CN=Brother 1, CN=both_generalizedtime
        Subject Public Key Info:
            Public Key Algorithm: rsaEncryption
                Public-Key: (2048 bit)
                Modulus:
                    00:be:95:86:fa:71:4c:6a:ea:51:98:50:4b:99:a1:
                    2c:66:15:f3:60:f3:e1:ff:69:fb:ce:48:01:1d:fe:
                    e1:2c:38:b0:e3:bd:8f:4b:48:a7:7e:3a:c6:73:e3:
                    ab:bf:e1:da:6e:96:f5:fe:c3:e4:b4:a8:ad:bc:56:
                    34:d4:96:25:74:27:c3:10:db:35:10:25:1c:8e:4b:
                    81:9b:fb:42:04:7c:6f:3d:e2:38:6c:0e:e4:2e:8e:
                    2a:18:6d:30:cd:67:2a:23:6b:37:cf:05:9f:cc:b7:
                    59:58:7f:ba:c4:0a:3f:8c:a4:ad:cb:98:9c:c0:f2:
                    8f:69:67:0f:c1:4e:33:cf:fc:85:5e:bb:5e:cf:93:
                    b0:cf:d9:f4:52:79:87:b1:f8:4d:15:68:65:d5:b7:
                    19:08:63:7f:5e:b1:34:ad:05:8f:5a:f0:e4:e1:8f:
                    25:f2:5c:5c:61:95:b0:56:2d:31:2b:08:65:79:e5:
                    b1:3b:9d:3e:b9:52:4b:ac:5d:c4:58:66:85:8d:81:
                    b3:04:28:f4:3f:2f:ac:92:01:62:d5:fd:8e:0b:da:
                    02:0c:7a:c7:6e:09:1c:ac:1c:b2:4c:d7:54:b8:26:
                    33:b2:5f:14:f3:b1:f9:3d:62:4d:40:99:6b:b6:e7:
                    89:58:97:d6:d4:4d:ea:4b:68:52:f3:3c:a8:b1:35:
                    88:db
                Exponent: 65537 (0x10001)
        X509v3 extensions:
            X509v3 Subject Key Identifier: 
                A1:DF:33:C3:CF:3E:53:41:A7:68:44:CC:AA:19:E1:84:C9:0D:BC:C6
            X509v3 Authority Key Identifier: 
                keyid:B4:11:33:F1:D7:E2:5E:F7:53:9E:20:22:10:4F:86:06:BF:1F:C9:5E
                DirName:/C=AU/O=Dodgy Brothers/CN=Dodgy CA
                serial:45:A3:EC:D9:32:60:15:86:79:0F:42:0D:35:F9:47:8C:72:84:86:F9
            X509v3 Basic Constraints: critical
                CA:TRUE, pathlen:1
            X509v3 Key Usage: 
                Certificate Sign, CRL Sign
            X509v3 Issuer Alternative Name: 
                <EMPTY>

    Signature Algorithm: sha1WithRSAEncryption
    Signature Value:
        68:ff:4a:78:33:7d:0b:97:92:aa:5d:46:ef:cc:eb:68:e7:fe:
        f1:86:18:21:db:f0:8d:1d:1b:68:61:64:66:ba:02:f2:42:3d:
        22:c6:a5:26:74:cc:92:e7:39:6a:3f:ee:9a:74:10:11:1e:98:
        43:78:7e:da:29:b4:11:4d:f8:53:db:83:74:ce:2c:a0:0c:1c:
        18:7a:db:85:7f:33:7a:c8:fb:cc:e5:14:a3:48:ab:31:33:54:
        15:4c:69:a9:16:01:df:85:a1:e5:4e:04:d4:a4:ae:c7:24:31:
        53:95:71:39:ca:47:fe:d0:b6:4d:8e:98:86:92:e0:06:9a:f3:
        38:36:e9:5c:6e:93:cd:48:08:73:f2:eb:35:e2:82:16:04:17:
        15:30:9d:10:ae:f5:05:2f:c2:b7:a3:0f:23:67:0e:af:94:85:
        58:6b:e1:65:0e:d4:86:a0:f2:81:f7:da:0f:97:4d:33:7b:43:
        3d:d6:c6:3c:26:9c:64:3d:97:8a:31:76:71:05:85:73:8c:74:
        43:79:2b:2a:09:e3:7e:22:b4:2d:40:65:2c:e6:65:81:13:61:
        50:85:f0:62:a6:2c:87:be:80:4a:8d:1e:be:d9:96:76:d0:59:
        e0:29:65:97:6c:b9:b1:a0:72:22:db:47:32:20:a1:3c:7e:7e:
        da:5a:6d:b5
-----BEGIN CERTIFICATE-----
MIID5TCCAs2gAwIBAgIUMMNj8eNxtdZPlncWCOSUMB4m0cIwDQYJKoZIhvcNAQEF
BQAwOTELMAkGA1UEBhMCQVUxFzAVBgNVBAoMDkRvZGd5IEJyb3RoZXJzMREwDwYD
VQQDDAhEb2RneSBDQTAeFw0yNTA2MDUwMjI5MTRaFw0yNjA2MDUwMjI5MTRaMFkx
CzAJBgNVBAYTAkFVMRcwFQYDVQQKDA5Eb2RneSBCcm90aGVyczESMBAGA1UEAwwJ
QnJvdGhlciAxMR0wGwYDVQQDDBRib3RoX2dlbmVyYWxpemVkdGltZTCCASIwDQYJ
KoZIhvcNAQEBBQADggEPADCCAQoCggEBAL6VhvpxTGrqUZhQS5mhLGYV82Dz4f9p
+85IAR3+4Sw4sOO9j0tIp346xnPjq7/h2m6W9f7D5LSorbxWNNSWJXQnwxDbNRAl
HI5LgZv7QgR8bz3iOGwO5C6OKhhtMM1nKiNrN88Fn8y3WVh/usQKP4ykrcuYnMDy
j2lnD8FOM8/8hV67Xs+TsM/Z9FJ5h7H4TRVoZdW3GQhjf16xNK0Fj1rw5OGPJfJc
XGGVsFYtMSsIZXnlsTudPrlSS6xdxFhmhY2BswQo9D8vrJIBYtX9jgvaAgx6x24J
HKwcskzXVLgmM7JfFPOx+T1iTUCZa7bniViX1tRN6ktoUvM8qLE1iNsCAwEAAaOB
xDCBwTAdBgNVHQ4EFgQUod8zw88+U0GnaETMqhnhhMkNvMYwdAYDVR0jBG0wa4AU
tBEz8dfiXvdTniAiEE+GBr8fyV6hPaQ7MDkxCzAJBgNVBAYTAkFVMRcwFQYDVQQK
DA5Eb2RneSBCcm90aGVyczERMA8GA1UEAwwIRG9kZ3kgQ0GCFEWj7NkyYBWGeQ9C
DTX5R4xyhIb5MBIGA1UdEwEB/wQIMAYBAf8CAQEwCwYDVR0PBAQDAgEGMAkGA1Ud
EgQCMAAwDQYJKoZIhvcNAQEFBQADggEBAGj/SngzfQuXkqpdRu/M62jn/vGGGCHb
8I0dG2hhZGa6AvJCPSLGpSZ0zJLnOWo/7pp0EBEemEN4ftoptBFN+FPbg3TOLKAM
HBh624V/M3rI+8zlFKNIqzEzVBVMaakWAd+FoeVOBNSkrsckMVOVcTnKR/7Qtk2O
mIaS4Aaa8zg26Vxuk81ICHPy6zXighYEFxUwnRCu9QUvwrejDyNnDq+UhVhr4WUO
1Iag8oH32g+XTTN7Qz3WxjwmnGQ9l4oxdnEFhXOMdEN5KyoJ434itC1AZSzmZYET
YVCF8GKmLIe+gEqNHr7ZlnbQWeApZZdsubGgciLbRzIgoTx+ftpabbU=
-----END CERTIFICATE-----
