Certificate:
    Data:
        Version: 3 (0x2)
        Serial Number:
            30:c3:63:f1:e3:71:b5:d6:4f:96:77:16:08:e4:94:30:1e:26:d1:c1
        Signature Algorithm: sha1WithRSAEncryption
        Issuer: C=AU, O=Dodgy Brothers, CN=Dodgy CA
        Validity
            Not Before: Jun  5 02:29:10 2025 GMT
            Not After : Jun  5 02:29:10 2026 GMT
        Subject: C=AU, O=Dodgy Brothers, CN=Brother 1, CN=both_utctime
        Subject Public Key Info:
            Public Key Algorithm: rsaEncryption
                Public-Key: (2048 bit)
                Modulus:
                    00:be:95:86:fa:71:4c:6a:ea:51:98:50:4b:99:a1:
                    2c:66:15:f3:60:f3:e1:ff:69:fb:ce:48:01:1d:fe:
                    e1:2c:38:b0:e3:bd:8f:4b:48:a7:7e:3a:c6:73:e3:
                    ab:bf:e1:da:6e:96:f5:fe:c3:e4:b4:a8:ad:bc:56:
                    34:d4:96:25:74:27:c3:10:db:35:10:25:1c:8e:4b:
                    81:9b:fb:42:04:7c:6f:3d:e2:38:6c:0e:e4:2e:8e:
                    2a:18:6d:30:cd:67:2a:23:6b:37:cf:05:9f:cc:b7:
                    59:58:7f:ba:c4:0a:3f:8c:a4:ad:cb:98:9c:c0:f2:
                    8f:69:67:0f:c1:4e:33:cf:fc:85:5e:bb:5e:cf:93:
                    b0:cf:d9:f4:52:79:87:b1:f8:4d:15:68:65:d5:b7:
                    19:08:63:7f:5e:b1:34:ad:05:8f:5a:f0:e4:e1:8f:
                    25:f2:5c:5c:61:95:b0:56:2d:31:2b:08:65:79:e5:
                    b1:3b:9d:3e:b9:52:4b:ac:5d:c4:58:66:85:8d:81:
                    b3:04:28:f4:3f:2f:ac:92:01:62:d5:fd:8e:0b:da:
                    02:0c:7a:c7:6e:09:1c:ac:1c:b2:4c:d7:54:b8:26:
                    33:b2:5f:14:f3:b1:f9:3d:62:4d:40:99:6b:b6:e7:
                    89:58:97:d6:d4:4d:ea:4b:68:52:f3:3c:a8:b1:35:
                    88:db
                Exponent: 65537 (0x10001)
        X509v3 extensions:
            X509v3 Subject Key Identifier: 
                A1:DF:33:C3:CF:3E:53:41:A7:68:44:CC:AA:19:E1:84:C9:0D:BC:C6
            X509v3 Authority Key Identifier: 
                keyid:B4:11:33:F1:D7:E2:5E:F7:53:9E:20:22:10:4F:86:06:BF:1F:C9:5E
                DirName:/C=AU/O=Dodgy Brothers/CN=Dodgy CA
                serial:45:A3:EC:D9:32:60:15:86:79:0F:42:0D:35:F9:47:8C:72:84:86:F9
            X509v3 Basic Constraints: critical
                CA:TRUE, pathlen:1
            X509v3 Key Usage: 
                Certificate Sign, CRL Sign
            X509v3 Issuer Alternative Name: 
                <EMPTY>

    Signature Algorithm: sha1WithRSAEncryption
    Signature Value:
        2b:6a:c8:f1:b4:7d:13:fc:be:2c:6e:a3:c1:be:2a:0a:1e:f0:
        64:ec:ce:a3:3c:4b:d9:1d:80:fd:eb:b9:61:c6:a0:79:29:a3:
        43:cc:c9:18:e4:ee:b5:82:15:fb:79:e2:5a:0f:c8:94:97:e5:
        e9:82:94:41:82:98:2a:60:55:89:f0:62:ce:e8:b7:d4:af:a1:
        ba:ed:6f:cf:09:10:0a:b4:85:b0:fa:8d:5f:1b:fe:42:a3:5b:
        ad:70:d8:0f:88:84:cc:61:a6:b8:c7:4b:94:39:71:e8:1f:7f:
        44:fd:37:de:a7:a4:e5:92:33:e8:db:f0:16:a3:72:2b:c0:7d:
        68:4d:94:fb:fd:23:ec:a9:bc:4f:41:9a:d1:54:92:c2:23:d6:
        95:38:86:69:64:41:87:3e:8a:37:eb:31:05:a1:fe:50:8e:db:
        dc:e1:0c:f9:e9:3f:72:70:f7:70:c0:8b:7f:d5:99:bb:b9:00:
        6d:ab:54:45:5e:9b:1f:82:2f:dd:a8:b4:11:77:d2:38:e2:91:
        1d:c2:f6:4b:a0:77:ae:52:14:5d:b1:35:f0:6e:ca:af:0e:0e:
        3c:54:ea:6c:fa:69:38:44:73:11:28:83:1c:7e:ee:4d:0e:30:
        8d:7a:c0:c4:40:3d:32:8c:25:20:d9:7e:98:7e:38:87:44:18:
        88:61:3d:26
-----BEGIN CERTIFICATE-----
MIID3TCCAsWgAwIBAgIUMMNj8eNxtdZPlncWCOSUMB4m0cEwDQYJKoZIhvcNAQEF
BQAwOTELMAkGA1UEBhMCQVUxFzAVBgNVBAoMDkRvZGd5IEJyb3RoZXJzMREwDwYD
VQQDDAhEb2RneSBDQTAeFw0yNTA2MDUwMjI5MTBaFw0yNjA2MDUwMjI5MTBaMFEx
CzAJBgNVBAYTAkFVMRcwFQYDVQQKDA5Eb2RneSBCcm90aGVyczESMBAGA1UEAwwJ
QnJvdGhlciAxMRUwEwYDVQQDDAxib3RoX3V0Y3RpbWUwggEiMA0GCSqGSIb3DQEB
AQUAA4IBDwAwggEKAoIBAQC+lYb6cUxq6lGYUEuZoSxmFfNg8+H/afvOSAEd/uEs
OLDjvY9LSKd+OsZz46u/4dpulvX+w+S0qK28VjTUliV0J8MQ2zUQJRyOS4Gb+0IE
fG894jhsDuQujioYbTDNZyojazfPBZ/Mt1lYf7rECj+MpK3LmJzA8o9pZw/BTjPP
/IVeu17Pk7DP2fRSeYex+E0VaGXVtxkIY39esTStBY9a8OThjyXyXFxhlbBWLTEr
CGV55bE7nT65UkusXcRYZoWNgbMEKPQ/L6ySAWLV/Y4L2gIMesduCRysHLJM11S4
JjOyXxTzsfk9Yk1AmWu254lYl9bUTepLaFLzPKixNYjbAgMBAAGjgcQwgcEwHQYD
VR0OBBYEFKHfM8PPPlNBp2hEzKoZ4YTJDbzGMHQGA1UdIwRtMGuAFLQRM/HX4l73
U54gIhBPhga/H8leoT2kOzA5MQswCQYDVQQGEwJBVTEXMBUGA1UECgwORG9kZ3kg
QnJvdGhlcnMxETAPBgNVBAMMCERvZGd5IENBghRFo+zZMmAVhnkPQg01+UeMcoSG
+TASBgNVHRMBAf8ECDAGAQH/AgEBMAsGA1UdDwQEAwIBBjAJBgNVHRIEAjAAMA0G
CSqGSIb3DQEBBQUAA4IBAQArasjxtH0T/L4sbqPBvioKHvBk7M6jPEvZHYD967lh
xqB5KaNDzMkY5O61ghX7eeJaD8iUl+XpgpRBgpgqYFWJ8GLO6LfUr6G67W/PCRAK
tIWw+o1fG/5Co1utcNgPiITMYaa4x0uUOXHoH39E/Tfep6TlkjPo2/AWo3IrwH1o
TZT7/SPsqbxPQZrRVJLCI9aVOIZpZEGHPoo36zEFof5Qjtvc4Qz56T9ycPdwwIt/
1Zm7uQBtq1RFXpsfgi/dqLQRd9I44pEdwvZLoHeuUhRdsTXwbsqvDg48VOps+mk4
RHMRKIMcfu5NDjCNesDEQD0yjCUg2X6YfjiHRBiIYT0m
-----END CERTIFICATE-----
