Certificate:
    Data:
        Version: 3 (0x2)
        Serial Number:
            30:c3:63:f1:e3:71:b5:d6:4f:96:77:16:08:e4:94:30:1e:26:d1:c0
        Signature Algorithm: sha1WithRSAEncryption
        Issuer: C=AU, O=Dodgy Brothers, CN=Dodgy CA
        Validity
            Not Before: Jun  5 02:29:07 2025 GMT
            Not After : Jun  5 02:29:07 2026 GMT
        Subject: C=AU, O=Dodgy Brothers, CN=Brother 1, CN=nextupdate_generalizedtime
        Subject Public Key Info:
            Public Key Algorithm: rsaEncryption
                Public-Key: (2048 bit)
                Modulus:
                    00:be:95:86:fa:71:4c:6a:ea:51:98:50:4b:99:a1:
                    2c:66:15:f3:60:f3:e1:ff:69:fb:ce:48:01:1d:fe:
                    e1:2c:38:b0:e3:bd:8f:4b:48:a7:7e:3a:c6:73:e3:
                    ab:bf:e1:da:6e:96:f5:fe:c3:e4:b4:a8:ad:bc:56:
                    34:d4:96:25:74:27:c3:10:db:35:10:25:1c:8e:4b:
                    81:9b:fb:42:04:7c:6f:3d:e2:38:6c:0e:e4:2e:8e:
                    2a:18:6d:30:cd:67:2a:23:6b:37:cf:05:9f:cc:b7:
                    59:58:7f:ba:c4:0a:3f:8c:a4:ad:cb:98:9c:c0:f2:
                    8f:69:67:0f:c1:4e:33:cf:fc:85:5e:bb:5e:cf:93:
                    b0:cf:d9:f4:52:79:87:b1:f8:4d:15:68:65:d5:b7:
                    19:08:63:7f:5e:b1:34:ad:05:8f:5a:f0:e4:e1:8f:
                    25:f2:5c:5c:61:95:b0:56:2d:31:2b:08:65:79:e5:
                    b1:3b:9d:3e:b9:52:4b:ac:5d:c4:58:66:85:8d:81:
                    b3:04:28:f4:3f:2f:ac:92:01:62:d5:fd:8e:0b:da:
                    02:0c:7a:c7:6e:09:1c:ac:1c:b2:4c:d7:54:b8:26:
                    33:b2:5f:14:f3:b1:f9:3d:62:4d:40:99:6b:b6:e7:
                    89:58:97:d6:d4:4d:ea:4b:68:52:f3:3c:a8:b1:35:
                    88:db
                Exponent: 65537 (0x10001)
        X509v3 extensions:
            X509v3 Subject Key Identifier: 
                A1:DF:33:C3:CF:3E:53:41:A7:68:44:CC:AA:19:E1:84:C9:0D:BC:C6
            X509v3 Authority Key Identifier: 
                keyid:B4:11:33:F1:D7:E2:5E:F7:53:9E:20:22:10:4F:86:06:BF:1F:C9:5E
                DirName:/C=AU/O=Dodgy Brothers/CN=Dodgy CA
                serial:45:A3:EC:D9:32:60:15:86:79:0F:42:0D:35:F9:47:8C:72:84:86:F9
            X509v3 Basic Constraints: critical
                CA:TRUE, pathlen:1
            X509v3 Key Usage: 
                Certificate Sign, CRL Sign
            X509v3 Issuer Alternative Name: 
                <EMPTY>

    Signature Algorithm: sha1WithRSAEncryption
    Signature Value:
        23:3a:98:98:57:23:59:6b:01:05:79:58:d8:29:22:76:54:29:
        6a:0e:ce:13:08:03:f7:41:5d:c3:12:3d:45:45:8c:ac:ff:39:
        00:59:d6:44:49:56:cb:78:a4:ed:80:bc:5e:fd:94:3e:73:c4:
        36:4c:02:c0:67:b6:ba:de:2f:d6:c6:19:ed:4a:67:9d:b8:cf:
        df:30:eb:93:11:b3:be:18:03:34:eb:b5:ba:69:d4:84:33:fe:
        c1:64:67:a2:0a:5b:f1:f5:a7:53:eb:2a:17:c2:0d:fa:2e:f4:
        ab:20:8d:ca:a1:cb:b4:bb:8d:68:f2:3f:d2:4f:7b:1f:d3:a5:
        97:ac:01:59:55:35:5b:9c:e6:1d:f8:8a:69:56:4a:fd:a5:a3:
        e2:08:31:a8:6c:9e:fb:8d:a1:19:8d:f8:be:38:64:7a:2a:f0:
        fd:86:db:65:4f:93:d2:6b:86:ab:71:e1:04:e9:24:54:3a:0e:
        14:04:78:c8:d7:55:d7:30:1b:a6:c3:76:a1:0e:1a:fd:f4:3f:
        6c:d2:c0:d6:b8:36:f0:ec:56:c3:fb:a1:13:84:a5:33:42:a4:
        1c:56:8e:9f:5f:bb:53:8a:a0:4e:06:b7:27:40:56:21:9f:55:
        19:cc:28:dd:d3:d1:d1:18:38:57:be:81:6e:4f:4e:d0:e6:e1:
        6c:3f:01:f0
-----BEGIN CERTIFICATE-----
MIID6zCCAtOgAwIBAgIUMMNj8eNxtdZPlncWCOSUMB4m0cAwDQYJKoZIhvcNAQEF
BQAwOTELMAkGA1UEBhMCQVUxFzAVBgNVBAoMDkRvZGd5IEJyb3RoZXJzMREwDwYD
VQQDDAhEb2RneSBDQTAeFw0yNTA2MDUwMjI5MDdaFw0yNjA2MDUwMjI5MDdaMF8x
CzAJBgNVBAYTAkFVMRcwFQYDVQQKDA5Eb2RneSBCcm90aGVyczESMBAGA1UEAwwJ
QnJvdGhlciAxMSMwIQYDVQQDDBpuZXh0dXBkYXRlX2dlbmVyYWxpemVkdGltZTCC
ASIwDQYJKoZIhvcNAQEBBQADggEPADCCAQoCggEBAL6VhvpxTGrqUZhQS5mhLGYV
82Dz4f9p+85IAR3+4Sw4sOO9j0tIp346xnPjq7/h2m6W9f7D5LSorbxWNNSWJXQn
wxDbNRAlHI5LgZv7QgR8bz3iOGwO5C6OKhhtMM1nKiNrN88Fn8y3WVh/usQKP4yk
rcuYnMDyj2lnD8FOM8/8hV67Xs+TsM/Z9FJ5h7H4TRVoZdW3GQhjf16xNK0Fj1rw
5OGPJfJcXGGVsFYtMSsIZXnlsTudPrlSS6xdxFhmhY2BswQo9D8vrJIBYtX9jgva
Agx6x24JHKwcskzXVLgmM7JfFPOx+T1iTUCZa7bniViX1tRN6ktoUvM8qLE1iNsC
AwEAAaOBxDCBwTAdBgNVHQ4EFgQUod8zw88+U0GnaETMqhnhhMkNvMYwdAYDVR0j
BG0wa4AUtBEz8dfiXvdTniAiEE+GBr8fyV6hPaQ7MDkxCzAJBgNVBAYTAkFVMRcw
FQYDVQQKDA5Eb2RneSBCcm90aGVyczERMA8GA1UEAwwIRG9kZ3kgQ0GCFEWj7Nky
YBWGeQ9CDTX5R4xyhIb5MBIGA1UdEwEB/wQIMAYBAf8CAQEwCwYDVR0PBAQDAgEG
MAkGA1UdEgQCMAAwDQYJKoZIhvcNAQEFBQADggEBACM6mJhXI1lrAQV5WNgpInZU
KWoOzhMIA/dBXcMSPUVFjKz/OQBZ1kRJVst4pO2AvF79lD5zxDZMAsBntrreL9bG
Ge1KZ524z98w65MRs74YAzTrtbpp1IQz/sFkZ6IKW/H1p1PrKhfCDfou9Ksgjcqh
y7S7jWjyP9JPex/TpZesAVlVNVuc5h34imlWSv2lo+IIMahsnvuNoRmN+L44ZHoq
8P2G22VPk9Jrhqtx4QTpJFQ6DhQEeMjXVdcwG6bDdqEOGv30P2zSwNa4NvDsVsP7
oROEpTNCpBxWjp9fu1OKoE4GtydAViGfVRnMKN3T0dEYOFe+gW5PTtDm4Ww/AfA=
-----END CERTIFICATE-----
