Certificate:
    Data:
        Version: 3 (0x2)
        Serial Number:
            30:c3:63:f1:e3:71:b5:d6:4f:96:77:16:08:e4:94:30:1e:26:d1:b7
        Signature Algorithm: sha256WithRSAEncryption
        Issuer: C=AU, O=Dodgy Brothers, CN=Dodgy CA
        Validity
            Not Before: Jun  5 02:28:42 2025 GMT
            Not After : Jun  5 02:28:42 2026 GMT
        Subject: C=AU, O=Dodgy Brothers, CN=Brother 1, CN=Brother 2
        Subject Public Key Info:
            Public Key Algorithm: rsaEncryption
                Public-Key: (2048 bit)
                Modulus:
                    00:a8:ff:89:58:61:85:ae:de:db:2c:0f:d5:73:fb:
                    e2:b7:a8:1b:7a:75:60:2b:d4:7d:3c:73:76:b5:ae:
                    de:93:2f:7f:24:90:6d:c9:1c:f4:8a:38:cd:9f:a2:
                    80:16:56:cb:b4:2c:bb:93:e5:17:1f:ff:0d:c6:43:
                    fe:31:34:f8:28:d8:75:e9:a3:bb:88:82:ef:a3:72:
                    e2:53:62:05:45:4d:e0:31:97:ef:aa:9d:10:d2:58:
                    0d:9e:06:9e:32:bb:1b:08:56:5d:65:0f:3f:66:8e:
                    c2:36:a0:11:ff:c0:59:35:fd:49:1c:dd:1c:42:33:
                    06:78:ae:04:38:23:e5:e7:75:67:d3:94:ad:5a:a9:
                    40:1f:ac:59:10:f5:0c:c1:64:ad:4a:c4:c6:35:53:
                    b3:96:6a:82:1b:15:8b:d1:99:ab:e4:9e:6f:94:aa:
                    d2:96:e5:57:fb:8c:91:64:8a:3c:24:16:c6:d2:19:
                    be:82:60:13:3b:62:b0:ed:3e:1d:b3:ca:f9:6b:df:
                    31:b9:7a:9e:4b:47:68:a7:29:c7:3f:4a:e2:22:27:
                    b4:ef:90:63:d7:ef:d0:72:49:3e:5b:ad:b9:1b:d4:
                    2b:6f:86:68:dd:d5:73:12:b8:43:c9:dc:41:0f:a2:
                    a3:46:4f:8b:67:88:84:0f:61:fe:79:34:1f:4a:89:
                    1f:b7
                Exponent: 65537 (0x10001)
        X509v3 extensions:
            X509v3 Basic Constraints: 
                CA:FALSE
            X509v3 Subject Key Identifier: 
                E7:9B:E2:2A:AD:8A:6C:3A:CB:76:51:E5:8E:07:98:22:97:E1:73:A2
            X509v3 Authority Key Identifier: 
                B4:11:33:F1:D7:E2:5E:F7:53:9E:20:22:10:4F:86:06:BF:1F:C9:5E
    Signature Algorithm: sha256WithRSAEncryption
    Signature Value:
        77:b3:86:4e:46:aa:9b:d9:d7:90:25:f8:73:75:fa:78:59:4a:
        be:0f:01:5a:14:d7:b4:e3:c5:d4:aa:20:7c:f5:68:4f:61:20:
        56:c7:33:d4:ba:b1:5f:e3:ac:4d:63:26:21:7a:09:c3:f4:b3:
        2c:e2:70:df:a3:5f:0c:34:f9:31:74:a7:5f:f2:a2:35:be:e6:
        05:44:8a:f2:4f:4b:d3:f4:fb:2b:a7:73:55:c3:1b:5c:e6:8f:
        e6:80:fb:e3:d5:4a:37:81:7f:34:4d:b8:bc:90:82:6d:3f:9f:
        6c:52:f7:7e:5b:d8:81:fb:d2:e6:e9:0b:f8:95:41:4f:03:9e:
        c6:0e:b7:e3:45:1c:c4:76:1c:56:5a:4a:37:1b:82:1b:c1:de:
        ea:23:c7:70:d2:db:13:2b:09:54:a5:73:06:82:64:12:86:f8:
        e0:5c:8e:38:a4:e5:da:9f:62:d3:fe:89:a7:ac:b1:fc:ce:28:
        04:d3:83:56:da:9a:02:1e:a1:4d:29:70:bc:9c:76:bf:ed:2a:
        49:67:09:d1:e5:08:62:12:6a:d2:27:cc:cc:3a:4e:9e:34:16:
        78:a3:94:f6:f7:a4:df:64:6b:cd:af:38:06:b9:87:f3:0d:89:
        35:04:63:82:1e:c6:df:46:e3:60:98:fb:72:b4:09:3b:d6:4d:
        23:e7:f6:44
-----BEGIN CERTIFICATE-----
MIIDYjCCAkqgAwIBAgIUMMNj8eNxtdZPlncWCOSUMB4m0bcwDQYJKoZIhvcNAQEL
BQAwOTELMAkGA1UEBhMCQVUxFzAVBgNVBAoMDkRvZGd5IEJyb3RoZXJzMREwDwYD
VQQDDAhEb2RneSBDQTAeFw0yNTA2MDUwMjI4NDJaFw0yNjA2MDUwMjI4NDJaME4x
CzAJBgNVBAYTAkFVMRcwFQYDVQQKDA5Eb2RneSBCcm90aGVyczESMBAGA1UEAwwJ
QnJvdGhlciAxMRIwEAYDVQQDDAlCcm90aGVyIDIwggEiMA0GCSqGSIb3DQEBAQUA
A4IBDwAwggEKAoIBAQCo/4lYYYWu3tssD9Vz++K3qBt6dWAr1H08c3a1rt6TL38k
kG3JHPSKOM2fooAWVsu0LLuT5Rcf/w3GQ/4xNPgo2HXpo7uIgu+jcuJTYgVFTeAx
l++qnRDSWA2eBp4yuxsIVl1lDz9mjsI2oBH/wFk1/Ukc3RxCMwZ4rgQ4I+XndWfT
lK1aqUAfrFkQ9QzBZK1KxMY1U7OWaoIbFYvRmavknm+UqtKW5Vf7jJFkijwkFsbS
Gb6CYBM7YrDtPh2zyvlr3zG5ep5LR2inKcc/SuIiJ7TvkGPX79ByST5brbkb1Ctv
hmjd1XMSuEPJ3EEPoqNGT4tniIQPYf55NB9KiR+3AgMBAAGjTTBLMAkGA1UdEwQC
MAAwHQYDVR0OBBYEFOeb4iqtimw6y3ZR5Y4HmCKX4XOiMB8GA1UdIwQYMBaAFLQR
M/HX4l73U54gIhBPhga/H8leMA0GCSqGSIb3DQEBCwUAA4IBAQB3s4ZORqqb2deQ
Jfhzdfp4WUq+DwFaFNe048XUqiB89WhPYSBWxzPUurFf46xNYyYhegnD9LMs4nDf
o18MNPkxdKdf8qI1vuYFRIryT0vT9Psrp3NVwxtc5o/mgPvj1Uo3gX80Tbi8kIJt
P59sUvd+W9iB+9Lm6Qv4lUFPA57GDrfjRRzEdhxWWko3G4Ibwd7qI8dw0tsTKwlU
pXMGgmQShvjgXI44pOXan2LT/omnrLH8zigE04NW2poCHqFNKXC8nHa/7SpJZwnR
5QhiEmrSJ8zMOk6eNBZ4o5T296TfZGvNrzgGuYfzDYk1BGOCHsbfRuNgmPtytAk7
1k0j5/ZE
-----END CERTIFICATE-----
