Certificate:
    Data:
        Version: 3 (0x2)
        Serial Number:
            30:c3:63:f1:e3:71:b5:d6:4f:96:77:16:08:e4:94:30:1e:26:d1:be
        Signature Algorithm: sha1WithRSAEncryption
        Issuer: C=AU, O=Dodgy Brothers, CN=Dodgy CA
        Validity
            Not Before: Jun  5 02:29:00 2025 GMT
            Not After : Jun  5 02:29:00 2026 GMT
        Subject: C=AU, O=Dodgy Brothers, CN=Brother 1, CN=nextupdate_invalid
        Subject Public Key Info:
            Public Key Algorithm: rsaEncryption
                Public-Key: (2048 bit)
                Modulus:
                    00:be:95:86:fa:71:4c:6a:ea:51:98:50:4b:99:a1:
                    2c:66:15:f3:60:f3:e1:ff:69:fb:ce:48:01:1d:fe:
                    e1:2c:38:b0:e3:bd:8f:4b:48:a7:7e:3a:c6:73:e3:
                    ab:bf:e1:da:6e:96:f5:fe:c3:e4:b4:a8:ad:bc:56:
                    34:d4:96:25:74:27:c3:10:db:35:10:25:1c:8e:4b:
                    81:9b:fb:42:04:7c:6f:3d:e2:38:6c:0e:e4:2e:8e:
                    2a:18:6d:30:cd:67:2a:23:6b:37:cf:05:9f:cc:b7:
                    59:58:7f:ba:c4:0a:3f:8c:a4:ad:cb:98:9c:c0:f2:
                    8f:69:67:0f:c1:4e:33:cf:fc:85:5e:bb:5e:cf:93:
                    b0:cf:d9:f4:52:79:87:b1:f8:4d:15:68:65:d5:b7:
                    19:08:63:7f:5e:b1:34:ad:05:8f:5a:f0:e4:e1:8f:
                    25:f2:5c:5c:61:95:b0:56:2d:31:2b:08:65:79:e5:
                    b1:3b:9d:3e:b9:52:4b:ac:5d:c4:58:66:85:8d:81:
                    b3:04:28:f4:3f:2f:ac:92:01:62:d5:fd:8e:0b:da:
                    02:0c:7a:c7:6e:09:1c:ac:1c:b2:4c:d7:54:b8:26:
                    33:b2:5f:14:f3:b1:f9:3d:62:4d:40:99:6b:b6:e7:
                    89:58:97:d6:d4:4d:ea:4b:68:52:f3:3c:a8:b1:35:
                    88:db
                Exponent: 65537 (0x10001)
        X509v3 extensions:
            X509v3 Subject Key Identifier: 
                A1:DF:33:C3:CF:3E:53:41:A7:68:44:CC:AA:19:E1:84:C9:0D:BC:C6
            X509v3 Authority Key Identifier: 
                keyid:B4:11:33:F1:D7:E2:5E:F7:53:9E:20:22:10:4F:86:06:BF:1F:C9:5E
                DirName:/C=AU/O=Dodgy Brothers/CN=Dodgy CA
                serial:45:A3:EC:D9:32:60:15:86:79:0F:42:0D:35:F9:47:8C:72:84:86:F9
            X509v3 Basic Constraints: critical
                CA:TRUE, pathlen:1
            X509v3 Key Usage: 
                Certificate Sign, CRL Sign
            X509v3 Issuer Alternative Name: 
                <EMPTY>

    Signature Algorithm: sha1WithRSAEncryption
    Signature Value:
        16:e7:11:d1:94:25:f1:2d:16:1d:0c:60:37:2b:e1:15:64:cb:
        bd:e7:bd:bd:16:02:6f:4e:5e:ad:38:60:18:21:4a:7f:38:04:
        ba:40:b6:14:31:00:be:5b:c0:44:99:77:d2:30:ab:ea:8f:59:
        fc:84:c0:54:e9:ca:2e:aa:fe:30:57:e8:e5:ea:19:f4:a9:21:
        9f:8e:cc:75:1d:39:fc:75:6e:e1:90:e3:a9:e4:77:ec:ce:73:
        b5:36:35:c8:86:2f:69:41:28:4a:ee:ba:00:22:7b:ce:db:8b:
        e0:16:4d:68:8a:88:b0:18:ac:1a:83:61:2f:61:fa:d2:a7:9b:
        2a:ec:43:49:65:7c:6a:82:1e:f9:a5:70:76:c1:37:d3:2c:79:
        87:7a:bb:ee:a2:09:cf:2f:41:a5:8d:6a:dc:82:51:dc:8e:a9:
        34:ca:fa:01:a7:1b:c4:21:22:64:d9:8c:08:ce:89:67:72:bc:
        5b:e1:42:81:2e:7a:02:16:a1:78:84:57:9f:79:43:6f:c0:cf:
        99:fd:bb:94:63:78:62:4f:41:01:2e:80:9a:26:53:39:2e:44:
        7b:ff:a2:82:1a:76:fd:82:a4:bd:86:b2:75:53:2c:3e:13:a5:
        87:91:1a:77:36:39:16:fe:f7:ab:69:7f:b1:d0:ce:7a:61:79:
        e6:85:c7:9c
-----BEGIN CERTIFICATE-----
MIID4zCCAsugAwIBAgIUMMNj8eNxtdZPlncWCOSUMB4m0b4wDQYJKoZIhvcNAQEF
BQAwOTELMAkGA1UEBhMCQVUxFzAVBgNVBAoMDkRvZGd5IEJyb3RoZXJzMREwDwYD
VQQDDAhEb2RneSBDQTAeFw0yNTA2MDUwMjI5MDBaFw0yNjA2MDUwMjI5MDBaMFcx
CzAJBgNVBAYTAkFVMRcwFQYDVQQKDA5Eb2RneSBCcm90aGVyczESMBAGA1UEAwwJ
QnJvdGhlciAxMRswGQYDVQQDDBJuZXh0dXBkYXRlX2ludmFsaWQwggEiMA0GCSqG
SIb3DQEBAQUAA4IBDwAwggEKAoIBAQC+lYb6cUxq6lGYUEuZoSxmFfNg8+H/afvO
SAEd/uEsOLDjvY9LSKd+OsZz46u/4dpulvX+w+S0qK28VjTUliV0J8MQ2zUQJRyO
S4Gb+0IEfG894jhsDuQujioYbTDNZyojazfPBZ/Mt1lYf7rECj+MpK3LmJzA8o9p
Zw/BTjPP/IVeu17Pk7DP2fRSeYex+E0VaGXVtxkIY39esTStBY9a8OThjyXyXFxh
lbBWLTErCGV55bE7nT65UkusXcRYZoWNgbMEKPQ/L6ySAWLV/Y4L2gIMesduCRys
HLJM11S4JjOyXxTzsfk9Yk1AmWu254lYl9bUTepLaFLzPKixNYjbAgMBAAGjgcQw
gcEwHQYDVR0OBBYEFKHfM8PPPlNBp2hEzKoZ4YTJDbzGMHQGA1UdIwRtMGuAFLQR
M/HX4l73U54gIhBPhga/H8leoT2kOzA5MQswCQYDVQQGEwJBVTEXMBUGA1UECgwO
RG9kZ3kgQnJvdGhlcnMxETAPBgNVBAMMCERvZGd5IENBghRFo+zZMmAVhnkPQg01
+UeMcoSG+TASBgNVHRMBAf8ECDAGAQH/AgEBMAsGA1UdDwQEAwIBBjAJBgNVHRIE
AjAAMA0GCSqGSIb3DQEBBQUAA4IBAQAW5xHRlCXxLRYdDGA3K+EVZMu95729FgJv
Tl6tOGAYIUp/OAS6QLYUMQC+W8BEmXfSMKvqj1n8hMBU6couqv4wV+jl6hn0qSGf
jsx1HTn8dW7hkOOp5HfsznO1NjXIhi9pQShK7roAInvO24vgFk1oioiwGKwag2Ev
YfrSp5sq7ENJZXxqgh75pXB2wTfTLHmHervuognPL0GljWrcglHcjqk0yvoBpxvE
ISJk2YwIzolncrxb4UKBLnoCFqF4hFefeUNvwM+Z/buUY3hiT0EBLoCaJlM5LkR7
/6KCGnb9gqS9hrJ1Uyw+E6WHkRp3NjkW/veraX+x0M56YXnmhcec
-----END CERTIFICATE-----
