Certificate:
    Data:
        Version: 3 (0x2)
        Serial Number:
            73:ba:0a:db:8d:9f:11:66:77:04:93:7f:5d:c7:61:f9:c6:86:71:74
        Signature Algorithm: sha256WithRSAEncryption
        Issuer: C=AU, L=Brisbane, O=CryptSoft Pty Ltd, CN=Eric Young, emailAddress=eay@mincom.oz.au
        Validity
            Not Before: Jun  5 02:12:13 2025 GMT
            Not After : Jun  5 02:12:13 2025 GMT
        Subject: C=AU, L=Brisbane, O=CryptSoft Pty Ltd, CN=Eric Young, emailAddress=eay@mincom.oz.au
        Subject Public Key Info:
            Public Key Algorithm: rsaEncryption
                Public-Key: (512 bit)
                Modulus:
                    00:aa:db:7a:a9:2e:46:4f:15:71:19:96:16:6b:4f:
                    f8:bb:e2:30:1d:fe:e9:d8:b3:59:6d:c3:c1:a7:df:
                    ce:7c:87:18:01:70:50:9f:c8:4e:fd:17:b5:bb:02:
                    ca:5d:d0:a3:22:86:86:b3:80:cb:74:6f:3c:ae:4c:
                    df:c8:ae:5d:3d
                Exponent: 65537 (0x10001)
        X509v3 extensions:
            X509v3 Subject Key Identifier: 
                FE:FF:49:4F:D8:25:BD:1D:98:7D:E4:B1:9C:02:91:F6:0D:9F:D6:C9
    Signature Algorithm: sha256WithRSAEncryption
    Signature Value:
        2e:d7:4e:a6:4c:a9:07:0d:3f:be:86:7c:d1:3c:94:fd:9d:e3:
        94:68:5f:2b:a2:d7:b4:0f:b5:25:70:15:83:e6:6b:37:de:9d:
        2f:73:30:0f:ae:cd:c3:23:fd:92:f8:5a:02:42:2d:a7:d0:21:
        8e:2b:c0:c6:e5:88:8a:c9:b9:77
-----BEGIN CERTIFICATE-----
MIICCTCCAbOgAwIBAgIUc7oK242fEWZ3BJN/Xcdh+caGcXQwDQYJKoZIhvcNAQEL
BQAwcjELMAkGA1UEBhMCQVUxETAPBgNVBAcMCEJyaXNiYW5lMRowGAYDVQQKDBFD
cnlwdFNvZnQgUHR5IEx0ZDETMBEGA1UEAwwKRXJpYyBZb3VuZzEfMB0GCSqGSIb3
DQEJARYQZWF5QG1pbmNvbS5vei5hdTAeFw0yNTA2MDUwMjEyMTNaFw0yNTA2MDUw
MjEyMTNaMHIxCzAJBgNVBAYTAkFVMREwDwYDVQQHDAhCcmlzYmFuZTEaMBgGA1UE
CgwRQ3J5cHRTb2Z0IFB0eSBMdGQxEzARBgNVBAMMCkVyaWMgWW91bmcxHzAdBgkq
hkiG9w0BCQEWEGVheUBtaW5jb20ub3ouYXUwXDANBgkqhkiG9w0BAQEFAANLADBI
AkEAqtt6qS5GTxVxGZYWa0/4u+IwHf7p2LNZbcPBp9/OfIcYAXBQn8hO/Re1uwLK
XdCjIoaGs4DLdG88rkzfyK5dPQIDAQABoyEwHzAdBgNVHQ4EFgQU/v9JT9glvR2Y
feSxnAKR9g2f1skwDQYJKoZIhvcNAQELBQADQQAu106mTKkHDT++hnzRPJT9neOU
aF8rote0D7UlcBWD5ms33p0vczAPrs3DI/2S+FoCQi2n0CGOK8DG5YiKybl3
-----END CERTIFICATE-----
