Certificate:
    Data:
        Version: 3 (0x2)
        Serial Number:
            30:c3:63:f1:e3:71:b5:d6:4f:96:77:16:08:e4:94:30:1e:26:d1:bc
        Signature Algorithm: sha1WithRSAEncryption
        Issuer: C=AU, O=Dodgy Brothers, CN=Dodgy CA
        Validity
            Not Before: Jun  5 02:28:54 2025 GMT
            Not After : Jun  5 02:28:54 2026 GMT
        Subject: C=AU, O=Dodgy Brothers, CN=Brother 1, CN=lastupdate_utctime
        Subject Public Key Info:
            Public Key Algorithm: rsaEncryption
                Public-Key: (2048 bit)
                Modulus:
                    00:be:95:86:fa:71:4c:6a:ea:51:98:50:4b:99:a1:
                    2c:66:15:f3:60:f3:e1:ff:69:fb:ce:48:01:1d:fe:
                    e1:2c:38:b0:e3:bd:8f:4b:48:a7:7e:3a:c6:73:e3:
                    ab:bf:e1:da:6e:96:f5:fe:c3:e4:b4:a8:ad:bc:56:
                    34:d4:96:25:74:27:c3:10:db:35:10:25:1c:8e:4b:
                    81:9b:fb:42:04:7c:6f:3d:e2:38:6c:0e:e4:2e:8e:
                    2a:18:6d:30:cd:67:2a:23:6b:37:cf:05:9f:cc:b7:
                    59:58:7f:ba:c4:0a:3f:8c:a4:ad:cb:98:9c:c0:f2:
                    8f:69:67:0f:c1:4e:33:cf:fc:85:5e:bb:5e:cf:93:
                    b0:cf:d9:f4:52:79:87:b1:f8:4d:15:68:65:d5:b7:
                    19:08:63:7f:5e:b1:34:ad:05:8f:5a:f0:e4:e1:8f:
                    25:f2:5c:5c:61:95:b0:56:2d:31:2b:08:65:79:e5:
                    b1:3b:9d:3e:b9:52:4b:ac:5d:c4:58:66:85:8d:81:
                    b3:04:28:f4:3f:2f:ac:92:01:62:d5:fd:8e:0b:da:
                    02:0c:7a:c7:6e:09:1c:ac:1c:b2:4c:d7:54:b8:26:
                    33:b2:5f:14:f3:b1:f9:3d:62:4d:40:99:6b:b6:e7:
                    89:58:97:d6:d4:4d:ea:4b:68:52:f3:3c:a8:b1:35:
                    88:db
                Exponent: 65537 (0x10001)
        X509v3 extensions:
            X509v3 Subject Key Identifier: 
                A1:DF:33:C3:CF:3E:53:41:A7:68:44:CC:AA:19:E1:84:C9:0D:BC:C6
            X509v3 Authority Key Identifier: 
                keyid:B4:11:33:F1:D7:E2:5E:F7:53:9E:20:22:10:4F:86:06:BF:1F:C9:5E
                DirName:/C=AU/O=Dodgy Brothers/CN=Dodgy CA
                serial:45:A3:EC:D9:32:60:15:86:79:0F:42:0D:35:F9:47:8C:72:84:86:F9
            X509v3 Basic Constraints: critical
                CA:TRUE, pathlen:1
            X509v3 Key Usage: 
                Certificate Sign, CRL Sign
            X509v3 Issuer Alternative Name: 
                <EMPTY>

    Signature Algorithm: sha1WithRSAEncryption
    Signature Value:
        4e:7c:1b:cc:d2:18:1d:9b:d1:25:c3:a9:61:f1:52:b8:65:95:
        8a:c0:a7:71:82:8a:a1:72:cb:37:1e:7d:7e:03:bf:ca:3e:4e:
        98:d0:e2:09:b6:08:7d:12:21:68:5c:bb:3a:ec:36:1b:6c:aa:
        9d:9e:28:e0:96:fb:d4:12:9a:8c:07:bd:d7:d3:45:38:9d:6e:
        0f:91:48:bd:ea:4f:60:94:40:f6:95:f1:dd:67:0f:3a:d1:4b:
        ea:0e:00:ff:85:ca:1b:78:08:54:47:b1:65:e8:b6:4f:9e:69:
        8a:61:d0:20:7c:70:77:78:b0:37:cc:3c:09:79:7a:b4:52:0b:
        75:f1:69:3f:ee:b0:17:2b:06:cd:ea:7d:72:a8:b9:48:c8:9a:
        f4:c8:90:42:2c:93:5b:97:bf:06:20:c4:46:c1:5b:98:21:f7:
        91:d1:24:9e:b1:89:fc:19:ac:6a:1c:f6:53:61:1e:c8:7d:9f:
        7f:e2:82:3a:ee:52:83:a9:a3:72:f6:93:e5:88:0c:bc:5a:ae:
        18:d6:e4:60:ba:65:eb:16:fa:7d:b1:c9:21:bd:ca:03:be:ed:
        ee:28:cf:f7:4c:f4:00:dd:42:80:ba:05:cc:17:a1:be:2d:00:
        4c:66:59:ce:19:84:38:d7:9e:b9:2b:b8:79:c9:68:dd:b8:4d:
        91:35:2b:af
-----BEGIN CERTIFICATE-----
MIID4zCCAsugAwIBAgIUMMNj8eNxtdZPlncWCOSUMB4m0bwwDQYJKoZIhvcNAQEF
BQAwOTELMAkGA1UEBhMCQVUxFzAVBgNVBAoMDkRvZGd5IEJyb3RoZXJzMREwDwYD
VQQDDAhEb2RneSBDQTAeFw0yNTA2MDUwMjI4NTRaFw0yNjA2MDUwMjI4NTRaMFcx
CzAJBgNVBAYTAkFVMRcwFQYDVQQKDA5Eb2RneSBCcm90aGVyczESMBAGA1UEAwwJ
QnJvdGhlciAxMRswGQYDVQQDDBJsYXN0dXBkYXRlX3V0Y3RpbWUwggEiMA0GCSqG
SIb3DQEBAQUAA4IBDwAwggEKAoIBAQC+lYb6cUxq6lGYUEuZoSxmFfNg8+H/afvO
SAEd/uEsOLDjvY9LSKd+OsZz46u/4dpulvX+w+S0qK28VjTUliV0J8MQ2zUQJRyO
S4Gb+0IEfG894jhsDuQujioYbTDNZyojazfPBZ/Mt1lYf7rECj+MpK3LmJzA8o9p
Zw/BTjPP/IVeu17Pk7DP2fRSeYex+E0VaGXVtxkIY39esTStBY9a8OThjyXyXFxh
lbBWLTErCGV55bE7nT65UkusXcRYZoWNgbMEKPQ/L6ySAWLV/Y4L2gIMesduCRys
HLJM11S4JjOyXxTzsfk9Yk1AmWu254lYl9bUTepLaFLzPKixNYjbAgMBAAGjgcQw
gcEwHQYDVR0OBBYEFKHfM8PPPlNBp2hEzKoZ4YTJDbzGMHQGA1UdIwRtMGuAFLQR
M/HX4l73U54gIhBPhga/H8leoT2kOzA5MQswCQYDVQQGEwJBVTEXMBUGA1UECgwO
RG9kZ3kgQnJvdGhlcnMxETAPBgNVBAMMCERvZGd5IENBghRFo+zZMmAVhnkPQg01
+UeMcoSG+TASBgNVHRMBAf8ECDAGAQH/AgEBMAsGA1UdDwQEAwIBBjAJBgNVHRIE
AjAAMA0GCSqGSIb3DQEBBQUAA4IBAQBOfBvM0hgdm9Elw6lh8VK4ZZWKwKdxgoqh
css3Hn1+A7/KPk6Y0OIJtgh9EiFoXLs67DYbbKqdnijglvvUEpqMB73X00U4nW4P
kUi96k9glED2lfHdZw860UvqDgD/hcobeAhUR7Fl6LZPnmmKYdAgfHB3eLA3zDwJ
eXq0Ugt18Wk/7rAXKwbN6n1yqLlIyJr0yJBCLJNbl78GIMRGwVuYIfeR0SSesYn8
GaxqHPZTYR7IfZ9/4oI67lKDqaNy9pPliAy8Wq4Y1uRgumXrFvp9sckhvcoDvu3u
KM/3TPQA3UKAugXMF6G+LQBMZlnOGYQ41565K7h5yWjduE2RNSuv
-----END CERTIFICATE-----
