Certificate:
    Data:
        Version: 3 (0x2)
        Serial Number:
            30:c3:63:f1:e3:71:b5:d6:4f:96:77:16:08:e4:94:30:1e:26:d1:bd
        Signature Algorithm: sha1WithRSAEncryption
        Issuer: C=AU, O=Dodgy Brothers, CN=Dodgy CA
        Validity
            Not Before: Jun  5 02:28:57 2025 GMT
            Not After : Jun  5 02:28:57 2026 GMT
        Subject: C=AU, O=Dodgy Brothers, CN=Brother 1, CN=lastupdate_generalizedtime
        Subject Public Key Info:
            Public Key Algorithm: rsaEncryption
                Public-Key: (2048 bit)
                Modulus:
                    00:be:95:86:fa:71:4c:6a:ea:51:98:50:4b:99:a1:
                    2c:66:15:f3:60:f3:e1:ff:69:fb:ce:48:01:1d:fe:
                    e1:2c:38:b0:e3:bd:8f:4b:48:a7:7e:3a:c6:73:e3:
                    ab:bf:e1:da:6e:96:f5:fe:c3:e4:b4:a8:ad:bc:56:
                    34:d4:96:25:74:27:c3:10:db:35:10:25:1c:8e:4b:
                    81:9b:fb:42:04:7c:6f:3d:e2:38:6c:0e:e4:2e:8e:
                    2a:18:6d:30:cd:67:2a:23:6b:37:cf:05:9f:cc:b7:
                    59:58:7f:ba:c4:0a:3f:8c:a4:ad:cb:98:9c:c0:f2:
                    8f:69:67:0f:c1:4e:33:cf:fc:85:5e:bb:5e:cf:93:
                    b0:cf:d9:f4:52:79:87:b1:f8:4d:15:68:65:d5:b7:
                    19:08:63:7f:5e:b1:34:ad:05:8f:5a:f0:e4:e1:8f:
                    25:f2:5c:5c:61:95:b0:56:2d:31:2b:08:65:79:e5:
                    b1:3b:9d:3e:b9:52:4b:ac:5d:c4:58:66:85:8d:81:
                    b3:04:28:f4:3f:2f:ac:92:01:62:d5:fd:8e:0b:da:
                    02:0c:7a:c7:6e:09:1c:ac:1c:b2:4c:d7:54:b8:26:
                    33:b2:5f:14:f3:b1:f9:3d:62:4d:40:99:6b:b6:e7:
                    89:58:97:d6:d4:4d:ea:4b:68:52:f3:3c:a8:b1:35:
                    88:db
                Exponent: 65537 (0x10001)
        X509v3 extensions:
            X509v3 Subject Key Identifier: 
                A1:DF:33:C3:CF:3E:53:41:A7:68:44:CC:AA:19:E1:84:C9:0D:BC:C6
            X509v3 Authority Key Identifier: 
                keyid:B4:11:33:F1:D7:E2:5E:F7:53:9E:20:22:10:4F:86:06:BF:1F:C9:5E
                DirName:/C=AU/O=Dodgy Brothers/CN=Dodgy CA
                serial:45:A3:EC:D9:32:60:15:86:79:0F:42:0D:35:F9:47:8C:72:84:86:F9
            X509v3 Basic Constraints: critical
                CA:TRUE, pathlen:1
            X509v3 Key Usage: 
                Certificate Sign, CRL Sign
            X509v3 Issuer Alternative Name: 
                <EMPTY>

    Signature Algorithm: sha1WithRSAEncryption
    Signature Value:
        19:fc:e0:25:64:e5:d2:c9:8b:2f:cf:4f:9a:3b:45:d5:d9:23:
        06:f1:6d:34:76:2d:ef:36:25:eb:d9:15:34:df:39:5d:13:79:
        f6:9c:e2:d3:d7:41:5b:6e:2e:a9:35:d2:d5:41:8c:91:df:00:
        15:ad:dc:94:31:65:b2:73:59:e6:49:f0:c5:35:5d:59:11:d1:
        3e:6a:b1:8b:13:52:e3:b1:63:eb:4b:0f:9b:33:15:74:2a:be:
        f0:cd:52:1f:6b:ec:27:e4:c2:31:3e:b6:a7:42:86:b3:99:fc:
        4c:c5:c3:ec:94:29:77:d7:e6:be:17:73:2a:57:33:96:4e:e7:
        78:62:9b:06:36:66:c0:fc:8f:16:06:cc:b0:94:32:ee:56:bd:
        81:af:86:6d:83:f3:4e:1a:7f:64:e3:0f:0a:e4:dc:d4:2c:7b:
        bf:b8:d0:72:2d:6d:bc:fe:fa:10:93:72:9c:dd:48:8a:e0:de:
        5b:30:a3:68:20:bf:cb:60:05:a9:db:e3:7e:1a:84:6c:80:24:
        a6:1f:70:d9:4e:93:b0:ed:46:0e:3d:51:da:d5:3d:3f:73:50:
        08:b9:5f:ca:e0:28:88:92:c4:38:c6:9f:3f:3b:67:32:24:b5:
        de:9e:5d:08:68:5d:b7:20:21:04:f0:23:9d:c2:41:94:b8:4b:
        8d:1e:0b:d8
-----BEGIN CERTIFICATE-----
MIID6zCCAtOgAwIBAgIUMMNj8eNxtdZPlncWCOSUMB4m0b0wDQYJKoZIhvcNAQEF
BQAwOTELMAkGA1UEBhMCQVUxFzAVBgNVBAoMDkRvZGd5IEJyb3RoZXJzMREwDwYD
VQQDDAhEb2RneSBDQTAeFw0yNTA2MDUwMjI4NTdaFw0yNjA2MDUwMjI4NTdaMF8x
CzAJBgNVBAYTAkFVMRcwFQYDVQQKDA5Eb2RneSBCcm90aGVyczESMBAGA1UEAwwJ
QnJvdGhlciAxMSMwIQYDVQQDDBpsYXN0dXBkYXRlX2dlbmVyYWxpemVkdGltZTCC
ASIwDQYJKoZIhvcNAQEBBQADggEPADCCAQoCggEBAL6VhvpxTGrqUZhQS5mhLGYV
82Dz4f9p+85IAR3+4Sw4sOO9j0tIp346xnPjq7/h2m6W9f7D5LSorbxWNNSWJXQn
wxDbNRAlHI5LgZv7QgR8bz3iOGwO5C6OKhhtMM1nKiNrN88Fn8y3WVh/usQKP4yk
rcuYnMDyj2lnD8FOM8/8hV67Xs+TsM/Z9FJ5h7H4TRVoZdW3GQhjf16xNK0Fj1rw
5OGPJfJcXGGVsFYtMSsIZXnlsTudPrlSS6xdxFhmhY2BswQo9D8vrJIBYtX9jgva
Agx6x24JHKwcskzXVLgmM7JfFPOx+T1iTUCZa7bniViX1tRN6ktoUvM8qLE1iNsC
AwEAAaOBxDCBwTAdBgNVHQ4EFgQUod8zw88+U0GnaETMqhnhhMkNvMYwdAYDVR0j
BG0wa4AUtBEz8dfiXvdTniAiEE+GBr8fyV6hPaQ7MDkxCzAJBgNVBAYTAkFVMRcw
FQYDVQQKDA5Eb2RneSBCcm90aGVyczERMA8GA1UEAwwIRG9kZ3kgQ0GCFEWj7Nky
YBWGeQ9CDTX5R4xyhIb5MBIGA1UdEwEB/wQIMAYBAf8CAQEwCwYDVR0PBAQDAgEG
MAkGA1UdEgQCMAAwDQYJKoZIhvcNAQEFBQADggEBABn84CVk5dLJiy/PT5o7RdXZ
IwbxbTR2Le82JevZFTTfOV0Tefac4tPXQVtuLqk10tVBjJHfABWt3JQxZbJzWeZJ
8MU1XVkR0T5qsYsTUuOxY+tLD5szFXQqvvDNUh9r7CfkwjE+tqdChrOZ/EzFw+yU
KXfX5r4XcypXM5ZO53himwY2ZsD8jxYGzLCUMu5WvYGvhm2D804af2TjDwrk3NQs
e7+40HItbbz++hCTcpzdSIrg3lswo2ggv8tgBanb434ahGyAJKYfcNlOk7DtRg49
UdrVPT9zUAi5X8rgKIiSxDjGnz87ZzIktd6eXQhoXbcgIQTwI53CQZS4S40eC9g=
-----END CERTIFICATE-----
