Certificate:
    Data:
        Version: 3 (0x2)
        Serial Number:
            30:c3:63:f1:e3:71:b5:d6:4f:96:77:16:08:e4:94:30:1e:26:d1:bf
        Signature Algorithm: sha1WithRSAEncryption
        Issuer: C=AU, O=Dodgy Brothers, CN=Dodgy CA
        Validity
            Not Before: Jun  5 02:29:03 2025 GMT
            Not After : Jun  5 02:29:03 2026 GMT
        Subject: C=AU, O=Dodgy Brothers, CN=Brother 1, CN=nextupdate_utctime
        Subject Public Key Info:
            Public Key Algorithm: rsaEncryption
                Public-Key: (2048 bit)
                Modulus:
                    00:be:95:86:fa:71:4c:6a:ea:51:98:50:4b:99:a1:
                    2c:66:15:f3:60:f3:e1:ff:69:fb:ce:48:01:1d:fe:
                    e1:2c:38:b0:e3:bd:8f:4b:48:a7:7e:3a:c6:73:e3:
                    ab:bf:e1:da:6e:96:f5:fe:c3:e4:b4:a8:ad:bc:56:
                    34:d4:96:25:74:27:c3:10:db:35:10:25:1c:8e:4b:
                    81:9b:fb:42:04:7c:6f:3d:e2:38:6c:0e:e4:2e:8e:
                    2a:18:6d:30:cd:67:2a:23:6b:37:cf:05:9f:cc:b7:
                    59:58:7f:ba:c4:0a:3f:8c:a4:ad:cb:98:9c:c0:f2:
                    8f:69:67:0f:c1:4e:33:cf:fc:85:5e:bb:5e:cf:93:
                    b0:cf:d9:f4:52:79:87:b1:f8:4d:15:68:65:d5:b7:
                    19:08:63:7f:5e:b1:34:ad:05:8f:5a:f0:e4:e1:8f:
                    25:f2:5c:5c:61:95:b0:56:2d:31:2b:08:65:79:e5:
                    b1:3b:9d:3e:b9:52:4b:ac:5d:c4:58:66:85:8d:81:
                    b3:04:28:f4:3f:2f:ac:92:01:62:d5:fd:8e:0b:da:
                    02:0c:7a:c7:6e:09:1c:ac:1c:b2:4c:d7:54:b8:26:
                    33:b2:5f:14:f3:b1:f9:3d:62:4d:40:99:6b:b6:e7:
                    89:58:97:d6:d4:4d:ea:4b:68:52:f3:3c:a8:b1:35:
                    88:db
                Exponent: 65537 (0x10001)
        X509v3 extensions:
            X509v3 Subject Key Identifier: 
                A1:DF:33:C3:CF:3E:53:41:A7:68:44:CC:AA:19:E1:84:C9:0D:BC:C6
            X509v3 Authority Key Identifier: 
                keyid:B4:11:33:F1:D7:E2:5E:F7:53:9E:20:22:10:4F:86:06:BF:1F:C9:5E
                DirName:/C=AU/O=Dodgy Brothers/CN=Dodgy CA
                serial:45:A3:EC:D9:32:60:15:86:79:0F:42:0D:35:F9:47:8C:72:84:86:F9
            X509v3 Basic Constraints: critical
                CA:TRUE, pathlen:1
            X509v3 Key Usage: 
                Certificate Sign, CRL Sign
            X509v3 Issuer Alternative Name: 
                <EMPTY>

    Signature Algorithm: sha1WithRSAEncryption
    Signature Value:
        29:63:33:16:d4:85:85:04:59:9f:67:fd:48:35:09:e6:a9:6c:
        08:bd:09:48:b9:00:3d:1d:b0:0f:27:c1:59:15:4c:13:25:26:
        10:ab:aa:5a:55:27:45:38:55:30:62:7f:bd:64:6c:d0:e9:51:
        92:cb:a6:1d:fd:90:33:62:10:f0:55:29:b7:0d:c7:86:24:bf:
        4c:2c:82:25:fd:f5:c5:25:0b:a5:99:7b:79:54:ce:ce:1e:8d:
        b8:8a:70:00:03:1b:ca:fe:d8:fa:6c:e1:be:b5:89:34:95:0e:
        20:1b:1f:21:91:2e:aa:94:db:d2:c7:c0:54:ff:c5:2a:04:83:
        df:05:46:e2:57:38:c9:44:b6:15:2b:c6:9d:63:ec:b6:89:1a:
        b5:5d:c5:2e:34:d9:d3:8f:f3:b1:11:b0:49:ac:a6:3a:c9:97:
        2a:5b:4a:dc:7a:ef:33:40:9b:8f:bb:26:cc:df:8a:4d:b0:4e:
        04:42:a6:43:1f:08:ee:64:07:b7:95:30:66:30:ac:70:ae:23:
        fe:08:61:dc:5a:89:0c:e4:82:c7:c8:25:cc:98:59:34:b8:96:
        ee:52:61:ed:80:1b:b7:fe:5b:71:db:10:a6:be:e9:6c:63:cf:
        0c:fb:6b:fe:76:75:da:2e:d2:0f:37:35:22:99:70:bb:c0:89:
        cd:36:12:8d
-----BEGIN CERTIFICATE-----
MIID4zCCAsugAwIBAgIUMMNj8eNxtdZPlncWCOSUMB4m0b8wDQYJKoZIhvcNAQEF
BQAwOTELMAkGA1UEBhMCQVUxFzAVBgNVBAoMDkRvZGd5IEJyb3RoZXJzMREwDwYD
VQQDDAhEb2RneSBDQTAeFw0yNTA2MDUwMjI5MDNaFw0yNjA2MDUwMjI5MDNaMFcx
CzAJBgNVBAYTAkFVMRcwFQYDVQQKDA5Eb2RneSBCcm90aGVyczESMBAGA1UEAwwJ
QnJvdGhlciAxMRswGQYDVQQDDBJuZXh0dXBkYXRlX3V0Y3RpbWUwggEiMA0GCSqG
SIb3DQEBAQUAA4IBDwAwggEKAoIBAQC+lYb6cUxq6lGYUEuZoSxmFfNg8+H/afvO
SAEd/uEsOLDjvY9LSKd+OsZz46u/4dpulvX+w+S0qK28VjTUliV0J8MQ2zUQJRyO
S4Gb+0IEfG894jhsDuQujioYbTDNZyojazfPBZ/Mt1lYf7rECj+MpK3LmJzA8o9p
Zw/BTjPP/IVeu17Pk7DP2fRSeYex+E0VaGXVtxkIY39esTStBY9a8OThjyXyXFxh
lbBWLTErCGV55bE7nT65UkusXcRYZoWNgbMEKPQ/L6ySAWLV/Y4L2gIMesduCRys
HLJM11S4JjOyXxTzsfk9Yk1AmWu254lYl9bUTepLaFLzPKixNYjbAgMBAAGjgcQw
gcEwHQYDVR0OBBYEFKHfM8PPPlNBp2hEzKoZ4YTJDbzGMHQGA1UdIwRtMGuAFLQR
M/HX4l73U54gIhBPhga/H8leoT2kOzA5MQswCQYDVQQGEwJBVTEXMBUGA1UECgwO
RG9kZ3kgQnJvdGhlcnMxETAPBgNVBAMMCERvZGd5IENBghRFo+zZMmAVhnkPQg01
+UeMcoSG+TASBgNVHRMBAf8ECDAGAQH/AgEBMAsGA1UdDwQEAwIBBjAJBgNVHRIE
AjAAMA0GCSqGSIb3DQEBBQUAA4IBAQApYzMW1IWFBFmfZ/1INQnmqWwIvQlIuQA9
HbAPJ8FZFUwTJSYQq6paVSdFOFUwYn+9ZGzQ6VGSy6Yd/ZAzYhDwVSm3DceGJL9M
LIIl/fXFJQulmXt5VM7OHo24inAAAxvK/tj6bOG+tYk0lQ4gGx8hkS6qlNvSx8BU
/8UqBIPfBUbiVzjJRLYVK8adY+y2iRq1XcUuNNnTj/OxEbBJrKY6yZcqW0rceu8z
QJuPuybM34pNsE4EQqZDHwjuZAe3lTBmMKxwriP+CGHcWokM5ILHyCXMmFk0uJbu
UmHtgBu3/ltx2xCmvulsY88M+2v+dnXaLtIPNzUimXC7wInNNhKN
-----END CERTIFICATE-----
