Certificate:
    Data:
        Version: 3 (0x2)
        Serial Number:
            30:c3:63:f1:e3:71:b5:d6:4f:96:77:16:08:e4:94:30:1e:26:d1:ba
        Signature Algorithm: sha1WithRSAEncryption
        Issuer: C=AU, O=Dodgy Brothers, CN=Dodgy CA
        Validity
            Not Before: Jun  5 02:28:48 2025 GMT
            Not After : Jun  5 02:28:48 2026 GMT
        Subject: C=AU, O=Dodgy Brothers, CN=Brother 1, CN=notimes
        Subject Public Key Info:
            Public Key Algorithm: rsaEncryption
                Public-Key: (2048 bit)
                Modulus:
                    00:be:95:86:fa:71:4c:6a:ea:51:98:50:4b:99:a1:
                    2c:66:15:f3:60:f3:e1:ff:69:fb:ce:48:01:1d:fe:
                    e1:2c:38:b0:e3:bd:8f:4b:48:a7:7e:3a:c6:73:e3:
                    ab:bf:e1:da:6e:96:f5:fe:c3:e4:b4:a8:ad:bc:56:
                    34:d4:96:25:74:27:c3:10:db:35:10:25:1c:8e:4b:
                    81:9b:fb:42:04:7c:6f:3d:e2:38:6c:0e:e4:2e:8e:
                    2a:18:6d:30:cd:67:2a:23:6b:37:cf:05:9f:cc:b7:
                    59:58:7f:ba:c4:0a:3f:8c:a4:ad:cb:98:9c:c0:f2:
                    8f:69:67:0f:c1:4e:33:cf:fc:85:5e:bb:5e:cf:93:
                    b0:cf:d9:f4:52:79:87:b1:f8:4d:15:68:65:d5:b7:
                    19:08:63:7f:5e:b1:34:ad:05:8f:5a:f0:e4:e1:8f:
                    25:f2:5c:5c:61:95:b0:56:2d:31:2b:08:65:79:e5:
                    b1:3b:9d:3e:b9:52:4b:ac:5d:c4:58:66:85:8d:81:
                    b3:04:28:f4:3f:2f:ac:92:01:62:d5:fd:8e:0b:da:
                    02:0c:7a:c7:6e:09:1c:ac:1c:b2:4c:d7:54:b8:26:
                    33:b2:5f:14:f3:b1:f9:3d:62:4d:40:99:6b:b6:e7:
                    89:58:97:d6:d4:4d:ea:4b:68:52:f3:3c:a8:b1:35:
                    88:db
                Exponent: 65537 (0x10001)
        X509v3 extensions:
            X509v3 Subject Key Identifier: 
                A1:DF:33:C3:CF:3E:53:41:A7:68:44:CC:AA:19:E1:84:C9:0D:BC:C6
            X509v3 Authority Key Identifier: 
                keyid:B4:11:33:F1:D7:E2:5E:F7:53:9E:20:22:10:4F:86:06:BF:1F:C9:5E
                DirName:/C=AU/O=Dodgy Brothers/CN=Dodgy CA
                serial:45:A3:EC:D9:32:60:15:86:79:0F:42:0D:35:F9:47:8C:72:84:86:F9
            X509v3 Basic Constraints: critical
                CA:TRUE, pathlen:1
            X509v3 Key Usage: 
                Certificate Sign, CRL Sign
            X509v3 Issuer Alternative Name: 
                <EMPTY>

    Signature Algorithm: sha1WithRSAEncryption
    Signature Value:
        65:9b:cc:68:a2:9c:1d:bf:74:2f:bc:a2:8b:d2:c9:74:91:6a:
        52:5c:8d:fd:a0:4e:59:0f:0e:62:99:39:1e:58:a7:86:14:9e:
        0e:06:be:1e:08:cd:19:1d:6f:6e:46:a4:18:91:4e:4b:05:2d:
        d2:67:b0:15:f2:cb:ab:84:4f:4d:4f:a9:87:9f:51:bd:ea:51:
        28:4b:c8:ac:d9:47:9f:e0:38:0d:cd:d9:72:6c:18:73:73:9e:
        c1:b7:a6:5e:4e:1e:65:2c:14:dc:1c:32:ec:38:6c:6c:01:6d:
        9a:3a:d0:3a:57:99:57:fa:59:f5:a2:51:bb:99:c8:46:c9:eb:
        7c:95:1d:5d:dd:01:3a:88:fe:65:bf:6d:35:85:47:65:c9:57:
        37:a3:89:f0:92:eb:6b:bd:4c:82:f6:46:6f:1c:e0:51:6b:38:
        1f:78:64:40:79:b6:64:8d:f5:27:c6:e4:70:8c:39:f6:e7:cb:
        b4:54:15:e8:9e:18:e6:7e:5c:98:24:0f:3d:37:72:30:c7:1b:
        b2:1a:09:3a:2e:f1:ba:b1:a9:f3:55:3c:50:e6:dd:67:4d:48:
        d4:a8:11:35:f4:b3:10:59:a9:01:19:6c:52:c8:0a:10:03:e9:
        29:01:83:f4:41:cf:bc:ce:04:ad:de:da:64:66:30:30:42:e1:
        22:71:ec:39
-----BEGIN CERTIFICATE-----
MIID2DCCAsCgAwIBAgIUMMNj8eNxtdZPlncWCOSUMB4m0bowDQYJKoZIhvcNAQEF
BQAwOTELMAkGA1UEBhMCQVUxFzAVBgNVBAoMDkRvZGd5IEJyb3RoZXJzMREwDwYD
VQQDDAhEb2RneSBDQTAeFw0yNTA2MDUwMjI4NDhaFw0yNjA2MDUwMjI4NDhaMEwx
CzAJBgNVBAYTAkFVMRcwFQYDVQQKDA5Eb2RneSBCcm90aGVyczESMBAGA1UEAwwJ
QnJvdGhlciAxMRAwDgYDVQQDDAdub3RpbWVzMIIBIjANBgkqhkiG9w0BAQEFAAOC
AQ8AMIIBCgKCAQEAvpWG+nFMaupRmFBLmaEsZhXzYPPh/2n7zkgBHf7hLDiw472P
S0infjrGc+Orv+Habpb1/sPktKitvFY01JYldCfDENs1ECUcjkuBm/tCBHxvPeI4
bA7kLo4qGG0wzWcqI2s3zwWfzLdZWH+6xAo/jKSty5icwPKPaWcPwU4zz/yFXrte
z5Owz9n0UnmHsfhNFWhl1bcZCGN/XrE0rQWPWvDk4Y8l8lxcYZWwVi0xKwhleeWx
O50+uVJLrF3EWGaFjYGzBCj0Py+skgFi1f2OC9oCDHrHbgkcrByyTNdUuCYzsl8U
87H5PWJNQJlrtueJWJfW1E3qS2hS8zyosTWI2wIDAQABo4HEMIHBMB0GA1UdDgQW
BBSh3zPDzz5TQadoRMyqGeGEyQ28xjB0BgNVHSMEbTBrgBS0ETPx1+Je91OeICIQ
T4YGvx/JXqE9pDswOTELMAkGA1UEBhMCQVUxFzAVBgNVBAoMDkRvZGd5IEJyb3Ro
ZXJzMREwDwYDVQQDDAhEb2RneSBDQYIURaPs2TJgFYZ5D0INNflHjHKEhvkwEgYD
VR0TAQH/BAgwBgEB/wIBATALBgNVHQ8EBAMCAQYwCQYDVR0SBAIwADANBgkqhkiG
9w0BAQUFAAOCAQEAZZvMaKKcHb90L7yii9LJdJFqUlyN/aBOWQ8OYpk5HlinhhSe
Dga+HgjNGR1vbkakGJFOSwUt0mewFfLLq4RPTU+ph59RvepRKEvIrNlHn+A4Dc3Z
cmwYc3OewbemXk4eZSwU3Bwy7DhsbAFtmjrQOleZV/pZ9aJRu5nIRsnrfJUdXd0B
Ooj+Zb9tNYVHZclXN6OJ8JLra71MgvZGbxzgUWs4H3hkQHm2ZI31J8bkcIw59ufL
tFQV6J4Y5n5cmCQPPTdyMMcbshoJOi7xurGp81U8UObdZ01I1KgRNfSzEFmpARls
UsgKEAPpKQGD9EHPvM4Erd7aZGYwMELhInHsOQ==
-----END CERTIFICATE-----
